((inltk.bernoulli
BernoulliNBClassifier
p0
(dp1
S'word_list'
p2
(lp3
S'allahrehamkare'
p4
aS'caused'
p5
aS'beware'
p6
aS'lack'
p7
aS'smartmumbaikar'
p8
aS'month'
p9
aS'leads'
p10
aS'doubledecker'
p11
aS'commute'
p12
aS'mumbaimata'
p13
aS'ministers'
p14
aS'4am'
p15
aS'battle'
p16
aS'follow'
p17
aS'saved'
p18
aS'seemed'
p19
aS'catastrophe'
p20
aS'gymnast'
p21
aS'chowky'
p22
aS'tweet'
p23
aS'sthal'
p24
aS'creepy'
p25
aS'bike'
p26
aS'lilavati'
p27
aS'kidspotsocial'
p28
aS'lord'
p29
aS'suffered'
p30
aS'fatal'
p31
aS'jay'
p32
aS'retro'
p33
aS'bandra'
p34
aS'case'
p35
aS'woman'
p36
aS'fireplaces'
p37
aS'sitting'
p38
aS'50mm'
p39
aS'horror'
p40
aS'helmet'
p41
aS'worst'
p42
aS'mout'
p43
aS'wagonr'
p44
aS'blast'
p45
aS'cool'
p46
aS'four'
p47
aS'washing'
p48
aS'eve'
p49
aS'flyover'
p50
aS'bikers'
p51
aS'item'
p52
aS'mumbaikars'
p53
aS'highway'
p54
aS'team'
p55
aS'small'
p56
aS'virar'
p57
aS'hsptl'
p58
aS'skyeoakesayy'
p59
aS'prevent'
p60
aS'mirchimumbai'
p61
aS'letsomething'
p62
aS'0800'
p63
aS'suv'
p64
aS'helmetrule'
p65
aS'navimumbai'
p66
aS'past'
p67
aS'likely'
p68
aS'7555'
p69
aS'plazacinema'
p70
aS'lawyer'
p71
aS'assembly'
p72
aS'even'
p73
aS'what'
p74
aS'hide'
p75
aS'updatean'
p76
aS'witnessed'
p77
aS'heres'
p78
aS'sun'
p79
aS'find'
p80
aS'lights'
p81
aS'indian'
p82
aS'abt'
p83
aS'whoah'
p84
aS'conduct'
p85
aS'new'
p86
aS'tips'
p87
aS'crashing'
p88
aS'ever'
p89
aS'led'
p90
aS'leg'
p91
aS'hydtraffic'
p92
aS'never'
p93
aS'discovery'
p94
aS'reported'
p95
aS'minor'
p96
aS'studio'
p97
aS'situation'
p98
aS'bealert'
p99
aS'path'
p100
aS'100'
p101
aS'wexp'
p102
aS'roadaccident'
p103
aS'change'
p104
aS'wait'
p105
aS'search'
p106
aS'kids'
p107
aS'daughter'
p108
aS'metro'
p109
aS'involved'
p110
aS'slipperyroad'
p111
aS'changed'
p112
aS'screech'
p113
aS'reason'
p114
aS'brutal'
p115
aS'afterhours'
p116
aS'airport'
p117
aS'resulting'
p118
aS'arent'
p119
aS'residents'
p120
aS'floor'
p121
aS'makes'
p122
aS'oldcar'
p123
aS'roadrunner'
p124
aS'via'
p125
aS'love'
p126
aS'streetart'
p127
aS'family'
p128
aS'claim'
p129
aS'drivecarefully'
p130
aS'mumbaimirror'
p131
aS'young'
p132
aS'wearemumbai'
p133
aS'pillion'
p134
aS'brendanrogers6'
p135
aS'1st'
p136
aS'marker'
p137
aS'rarely'
p138
aS'singing'
p139
aS'market'
p140
aS'discuss'
p141
aS'plop'
p142
aS'working'
p143
aS'always'
p144
aS'two'
p145
aS'balloon'
p146
aS'handles'
p147
aS'going'
p148
aS'call'
p149
aS'lilmississues'
p150
aS'vehicle'
p151
aS'mysterious'
p152
aS'919454125733'
p153
aS'prev'
p154
aS'tell'
p155
aS'today'
p156
aS'buddy'
p157
aS'towers'
p158
aS'shapeleft'
p159
aS'lovethem'
p160
aS'hurt'
p161
aS'glass'
p162
aS'train'
p163
aS'broke'
p164
aS'slipandfall'
p165
aS'jogeshwari'
p166
aS'doom'
p167
aS'casualties'
p168
aS'riders'
p169
aS'high'
p170
aS'hubbrz'
p171
aS'heard'
p172
aS'traffline'
p173
aS'car'
p174
aS'work'
p175
aS'gasoline'
p176
aS'cat'
p177
aS'kmph'
p178
aS'huge'
p179
aS'learn'
p180
aS'meet'
p181
aS'camry'
p182
aS'logon'
p183
aS'help'
p184
aS'400083'
p185
aS'crazy'
p186
aS'months'
p187
aS'grace'
p188
aS'escapes'
p189
aS'easternexpresshighway'
p190
aS'aarey'
p191
aS'india'
p192
aS'mumbailocal'
p193
aS'supremacy'
p194
aS'collision'
p195
aS'smartphone'
p196
aS'something'
p197
aS'rig'
p198
aS'story'
p199
aS'serum'
p200
aS'narrowly'
p201
aS'nesco'
p202
aS'opp'
p203
aS'end'
p204
aS'rather'
p205
aS'hongkong'
p206
aS'travel'
p207
aS'breaking'
p208
aS'amputated'
p209
aS'speedy'
p210
aS'heavyvehicles'
p211
aS'beach'
p212
aS'goat'
p213
aS'gordon'
p214
aS'badly'
p215
aS'okay'
p216
aS'description'
p217
aS'crashes'
p218
aS'bkc'
p219
aS'may'
p220
aS'after'
p221
aS'spot'
p222
aS'damaged'
p223
aS'crashed'
p224
aS'blood'
p225
aS'coming'
p226
aS'law'
p227
aS'man'
p228
aS'nightcrawling'
p229
aS'shashwat'
p230
aS'killerroads'
p231
aS'sclrsmall'
p232
aS'mango'
p233
aS'truck'
p234
aS'ambulance'
p235
aS'uninsured'
p236
aS'every'
p237
aS'first'
p238
aS'playing'
p239
aS'talk'
p240
aS'houston'
p241
aS'neglect'
p242
aS'fife'
p243
aS'kick'
p244
aS'office'
p245
aS'tweetersteele'
p246
aS'drivesafely'
p247
aS'fall'
p248
aS'midnight'
p249
aS'soon'
p250
aS'produced'
p251
aS'ended'
p252
aS'kailash'
p253
aS'motorcycle'
p254
aS'falling'
p255
aS'suffer'
p256
aS'bummed'
p257
aS'mumbaiaccident'
p258
aS'apmc'
p259
aS'police'
p260
aS'vento'
p261
aS'nohonesty'
p262
aS'personal'
p263
aS'interesting'
p264
aS'thane'
p265
aS'irani'
p266
aS'labor'
p267
aS'late'
p268
aS'platform'
p269
aS'gymnasts'
p270
aS'pcb'
p271
aS'covered'
p272
aS'travelling'
p273
aS'main'
p274
aS'might'
p275
aS'dontloseyourhead'
p276
aS'prius'
p277
aS'happened'
p278
aS'good'
p279
aS'crash'
p280
aS'auto'
p281
aS'breakingnews'
p282
aS'safe'
p283
aS'break'
p284
aS'disrupted'
p285
aS'shameful'
p286
aS'half'
p287
aS'vashiyou'
p288
aS'killed'
p289
aS'4012260097'
p290
aS'lies'
p291
aS'divider'
p292
aS'artist'
p293
aS'revert'
p294
aS'godrej'
p295
aS'explode'
p296
aS'elynn99'
p297
aS'wheelchairtravelers'
p298
aS'stopped'
p299
aS'realphoto'
p300
aS'found'
p301
aS'bacha'
p302
aS'photooftheday'
p303
aS'experienced'
p304
aS'luck'
p305
aS'heavy'
p306
aS'injured'
p307
aS'harm'
p308
aS'everyone'
p309
aS'2dae'
p310
aS'trafficupdate'
p311
aS'navi'
p312
aS'hard'
p313
aS'idea'
p314
aS'inverted'
p315
aS'year'
p316
aS'happen'
p317
aS'teams'
p318
aS'saturday'
p319
aS'really'
p320
aS'troll'
p321
aS'gon'
p322
aS'stitch'
p323
aS'driving'
p324
aS'god'
p325
aS'trooper'
p326
aS'since'
p327
aS'#unhappymorning'
p328
aS'collisions'
p329
aS'investigation'
p330
aS'safety'
p331
aS'hill'
p332
aS'surprise'
p333
aS'cause'
p334
aS'red'
p335
aS'smart'
p336
aS'fun'
p337
aS'cars'
p338
aS'enforcing'
p339
aS'million'
p340
aS'borivali'
p341
aS'hyundai'
p342
aS'free'
p343
aS'recoveries'
p344
aS'junction'
p345
aS'completely'
p346
aS'happensaccident'
p347
aS'stachearmy'
p348
aS'ask'
p349
aS'knit'
p350
aS'scary'
p351
aS'pune'
p352
aS'shocking'
p353
aS'thankyou'
p354
aS'starts'
p355
aS'could'
p356
aS'messages'
p357
aS'airportsarefunny'
p358
aS'keep'
p359
aS'thing'
p360
aS'place'
p361
aS'hopeless'
p362
aS'loud'
p363
aS'caught'
p364
aS'south'
p365
aS'mad'
p366
aS'spotted'
p367
aS'major'
p368
aS'dont'
p369
aS'alley'
p370
aS'blooddonation'
p371
aS'feel'
p372
aS'notexting'
p373
aS'scene'
p374
aS'one'
p375
aS'williams'
p376
aS'drunkdriving'
p377
aS'inspected'
p378
aS'another'
p379
aS'cryin'
p380
aS'sheep'
p381
aS'little'
p382
aS'los'
p383
aS'unknown'
p384
aS'caraccident'
p385
aS'girls'
p386
aS'flyoverrushed'
p387
aS'goregoan'
p388
aS'anyone'
p389
aS'needed'
p390
aS'vikhroli'
p391
aS'station'
p392
aS'tragic'
p393
aS'dumbass'
p394
aS'white'
p395
aS'trafflinemum'
p396
aS'talkinghead'
p397
aS'store'
p398
aS'prone'
p399
aS'shifted'
p400
aS'localpressco'
p401
aS'eyes'
p402
aS'liang'
p403
aS'plaza'
p404
aS'myhero'
p405
aS'doomed'
p406
aS'park'
p407
aS'took'
p408
aS'unending'
p409
aS'cops'
p410
aS'luckily'
p411
aS'part'
p412
aS'rickshaw'
p413
aS'western'
p414
aS'kurla'
p415
aS'butt'
p416
aS'gruesome'
p417
aS'horrible'
p418
aS'loved'
p419
aS'photograph'
p420
aS'lmao'
p421
aS'things'
p422
aS'tragedy'
p423
aS'gaya'
p424
aS'scoop'
p425
aS'crossroads'
p426
aS'7771000'
p427
aS'compensation'
p428
aS'protected'
p429
aS'damaging'
p430
aS'light'
p431
aS'listen'
p432
aS'jvlr'
p433
aS'bridge'
p434
aS'lbt'
p435
aS'suffocating'
p436
aS'mind'
p437
aS'selfstopping'
p438
aS'andheri'
p439
aS'sad'
p440
aS'pedestrian'
p441
aS'say'
p442
aS'style'
p443
aS'need'
p444
aS'mins'
p445
aS'seek'
p446
aS'audits'
p447
aS'roadsafety'
p448
aS'nights'
p449
aS'peterliang'
p450
aS'coal'
p451
aS'self'
p452
aS'snow'
p453
aS'bmwvshyundai'
p454
aS'note'
p455
aS'without'
p456
aS'take'
p457
aS'periconemd'
p458
aS'atdrvr'
p459
aS'rider'
p460
aS'uncategorized'
p461
aS'2016'
p462
aS'towards'
p463
aS'multiple'
p464
aS'track'
p465
aS'victim'
p466
aS'dadar'
p467
aS'cigarette'
p468
aS'involving'
p469
aS'eight'
p470
aS'penske'
p471
aS'twowe'
p472
aS'nothing'
p473
aS'information'
p474
aS'panic'
p475
aS'ziuby'
p476
aS'forever'
p477
aS'gasolinerainbow'
p478
aS'insured'
p479
aS'bandrafire'
p480
aS'badleg'
p481
aS'average'
p482
aS'gather'
p483
aS'metal'
p484
aS'sivajipark'
p485
aS'regards'
p486
aS'smriti'
p487
aS'hear'
p488
aS'senior'
p489
aS'shoutout'
p490
aS'think'
p491
aS'mylife'
p492
aS'ones'
p493
aS'changedmylife'
p494
aS'consult'
p495
aS'assholes'
p496
aS'scapegoat'
p497
aS'biker'
p498
aS'bikes'
p499
aS'follow4follow'
p500
aS'ursisurs'
p501
aS'chicken'
p502
aS'heavens'
p503
aS'2autos'
p504
aS'200'
p505
aS'costing'
p506
aS'gbroad'
p507
aS'palmbeach'
p508
aS'creamed'
p509
aS'slow'
p510
aS'mumbai'
p511
aS'paranoid'
p512
aS'santro'
p513
aS'writes'
p514
aS'state'
p515
aS'hrs'
p516
aS'like4likes'
p517
aS'majoraccident'
p518
aS'idiots'
p519
aS'jam'
p520
aS'black'
p521
aS'dancing'
p522
aS'pretty'
p523
aS'inventions'
p524
aS'hrd'
p525
aS'oct'
p526
aS'hope'
p527
aS'hitandrunaccident'
p528
aS'meant'
p529
aS'tiles'
p530
aS'hit'
p531
aS'get'
p532
aS'ghodbunderroad'
p533
aS'wishing'
p534
aS'express'
p535
aS'jeeturaaj'
p536
aS'made'
p537
aS'vikhrolis'
p538
aS'words'
p539
aS'werent'
p540
aS'report'
p541
aS'itthey'
p542
aS'vehiclecrash'
p543
aS'distraction'
p544
aS'cancersurvivor'
p545
aS'verdicts'
p546
aS'appeal'
p547
aS'trucks'
p548
aS'wasps'
p549
aS'brendan'
p550
aS'scorpio.'
p551
aS'storeys'
p552
aS'morning'
p553
aS'naked'
p554
aS'stl'
p555
aS'bad'
p556
aS'stupid'
p557
aS'fault'
p558
aS'pants'
p559
aS'steal'
p560
aS'thanks'
p561
aS'insane'
p562
aS'available'
p563
aS'heightsafety'
p564
aS'art'
p565
aS'disaster'
p566
aS'1homeless'
p567
aS'module'
p568
aS'fivegirls'
p569
aS'see'
p570
aS'result'
p571
aS'robby'
p572
aS'fail'
p573
aS'close'
p574
aS'chawl'
p575
aS'best'
p576
aS'carterroad'
p577
aS'crunching'
p578
aS'fails'
p579
aS'said'
p580
aS'closet'
p581
aS'position'
p582
aS'jumped'
p583
aS'away'
p584
aS'intending'
p585
aS'please'
p586
aS'injuries'
p587
aS'outside'
p588
aS'finger'
p589
aS'tyre'
p590
aS'routine'
p591
aS'crosswalk'
p592
aS'youll'
p593
aS'udaya'
p594
aS'europe'
p595
aS'omg'
p596
aS'missing'
p597
aS'premises'
p598
aS'enjoying'
p599
aS'sole'
p600
aS'1830'
p601
aS'incident'
p602
aS'tuk'
p603
aS'armenian'
p604
aS'travellers'
p605
aS'invisible'
p606
aS'news'
p607
aS'come'
p608
aS'holds'
p609
aS'aldenrichards'
p610
aS'accident'
p611
aS'last'
p612
aS'met'
p613
aS'many'
p614
aS'taking'
p615
aS'according'
p616
aS'rams'
p617
aS'hanuman'
p618
aS'admit'
p619
aS'railway'
p620
aS'comes'
p621
aS'nearby'
p622
aS'flyovers'
p623
aS'banstead'
p624
aS'afterwards'
p625
aS'wall'
p626
aS'harbour'
p627
aS'4carinline'
p628
aS'coma'
p629
aS'259'
p630
aS'securityindia'
p631
aS'mcgmbmc'
p632
aS'loaded'
p633
aS'beheaded'
p634
aS'trust'
p635
aS'angeles'
p636
aS'eyewitness'
p637
aS'bathroom'
p638
aS'marg'
p639
aS'cycling'
p640
aS'motorbike'
p641
aS'engines'
p642
aS'shouting'
p643
aS'union'
p644
aS'fireatbkc'
p645
aS'political'
p646
aS'due'
p647
aS'mark'
p648
aS'chimneys'
p649
aS'beer'
p650
aS'trigger'
p651
aS'damn'
p652
aS'woke'
p653
aS'threw'
p654
aS'firm'
p655
aS'life'
p656
aS'bhandup'
p657
aS'eastern'
p658
aS'fire'
p659
aS'designed'
p660
aS'worker'
p661
aS'photos'
p662
aS'lives'
p663
aS'bmw'
p664
aS'kicks'
p665
aS'motorists'
p666
aS'160'
p667
aS'chill'
p668
aS'sound'
p669
aS'wood'
p670
aS'save'
p671
aS'look'
p672
aS'hughey'
p673
aS'newme'
p674
aS'mousumiroy'
p675
aS'near'
p676
aS'policestation'
p677
aS'hav'
p678
aS'rbi'
p679
aS'country'
p680
aS'squeezed'
p681
aS'aid'
p682
aS'shops'
p683
aS'property'
p684
aS'launched'
p685
aS'theres'
p686
aS'cylinder'
p687
aS'almost'
p688
aS'injury'
p689
aS'canon'
p690
aS'site'
p691
aS'poonam'
p692
aS'cant'
p693
aS'someone'
p694
aS'brake'
p695
aS'huwa'
p696
aS'cbtl'
p697
aS'stoves'
p698
aS'gandhinagar'
p699
aS'dumper'
p700
aS'funny'
p701
aS'par'
p702
aS'newlife'
p703
aS'productivity'
p704
aS'wearing'
p705
aS'saw'
p706
aS'make'
p707
aS'cross'
p708
aS'trip'
p709
aS'rules'
p710
aS'shit'
p711
aS'stepped'
p712
aS'gets'
p713
aS'dhs'
p714
aS'start'
p715
aS'week'
p716
aS'material'
p717
aS'lawyers'
p718
aS'erecting'
p719
aS'nest'
p720
aS'driver'
p721
aS'effect'
p722
aS'rain'
p723
aS'safer'
p724
aS'norwegian'
p725
aS'running'
p726
aS'moving'
p727
aS'haunting'
p728
aS'blaming'
p729
aS'wheels'
p730
aS'thoughts'
p731
aS'kid'
p732
aS'audit'
p733
aS'incencitive'
p734
aS'mumairport'
p735
aS'lunch'
p736
aS'x6s'
p737
aS'youre'
p738
aS'well'
p739
aS'nothin'
p740
aS'closeone'
p741
aS'person'
p742
aS'thm'
p743
aS'contact'
p744
aS'relief'
p745
aS'affected'
p746
aS'8851'
p747
aS'breaker'
p748
aS'mirchi983fm'
p749
aS'withdraws'
p750
aS'negligence'
p751
aS'photo'
p752
aS'settlements'
p753
aS'list25'
p754
aS'front'
p755
aS'kannamwar'
p756
aS'human'
p757
aS'upturned'
p758
aS'insurancecoverage'
p759
aS'speed'
p760
aS'yet'
p761
aS'palmbeachroad'
p762
aS'letting'
p763
aS'coyotes'
p764
aS'death'
p765
aS'tight'
p766
aS'scorpio'
p767
aS'workers'
p768
aS'weh'
p769
aS'seems'
p770
aS'except'
p771
aS'day'
p772
aS'signals'
p773
aS'wer'
p774
aS'pile'
p775
aS'soooooo'
p776
aS'east'
p777
aS'ski'
p778
aS'humanity'
p779
aS'vashi'
p780
aS'build'
p781
aS'victims'
p782
aS'demands'
p783
aS'read'
p784
aS'big'
p785
aS'crushed'
p786
aS'early'
p787
aS'game'
p788
aS'traffic'
p789
aS'know'
p790
aS'mom'
p791
aS'rofl'
p792
aS'burnt'
p793
aS'vikhrolieastern'
p794
aS'color'
p795
aS'like'
p796
aS'loss'
p797
aS'standstill'
p798
aS'helpful'
p799
aS'lost'
p800
aS'spine'
p801
aS'unhappymorning'
p802
aS'collective'
p803
aS'toyota'
p804
aS'dundee'
p805
aS'annually'
p806
aS'girl'
p807
aS'either'
p808
aS'night'
p809
aS'nice'
p810
aS'accidentally'
p811
aS'daughterviolence'
p812
aS'dabstache'
p813
aS'dumpar'
p814
aS'sketch'
p815
aS'right'
p816
aS'old'
p817
aS'people'
p818
aS'fucking'
p819
aS'spring'
p820
aS'back'
p821
aS'dead'
p822
aS'urgent'
p823
aS'wrongfuldeath'
p824
aS'palm'
p825
aS'sight'
p826
aS'dog'
p827
aS'pain'
p828
aS'precautions'
p829
aS'peter'
p830
aS'2days'
p831
aS'friend'
p832
aS'cavalcade'
p833
aS'avoid'
p834
aS'ice'
p835
aS'santacruz'
p836
aS'everything'
p837
aS'gymnastic'
p838
aS'critical'
p839
aS'drivesafe'
p840
aS'vikhrolighatkopar'
p841
aS'googles'
p842
aS'temple'
p843
aS'eeh'
p844
aS'holiday'
p845
aS'pls'
p846
aS'vintage'
p847
aS'business'
p848
aS'asap'
p849
aS'appeared'
p850
aS'302'
p851
aS'lose'
p852
aS'hosp'
p853
aS'slum'
p854
aS'went'
p855
aS'liya'
p856
aS'westernexpress'
p857
aS'beaverx'
p858
aS'goods'
p859
aS'dollars'
p860
aS'citizens'
p861
aS'chronic'
p862
aS'gandhi'
p863
aS'breakerrider'
p864
aS'ghatkopar'
p865
aS'maharashtra'
p866
aS'road'
p867
aS'pollution'
p868
aS'turtle'
p869
aS'splash'
p870
aS'ppe'
p871
aS'bound'
p872
aS'ppl'
p873
aS'freshman'
p874
aS'google'
p875
aS'promise'
p876
aS'rapid'
p877
aS'parties'
p878
aS'roads'
p879
aS'lifehumanity'
p880
aS'stitches'
p881
aS'731'
p882
aS'area'
p883
aS'secret'
p884
aS'lol'
p885
aS'stuck'
p886
aS'appears'
p887
aS'cats'
p888
aS'lot'
p889
aS'parel'
p890
aS'followme'
p891
aS'happy'
p892
aS'head'
p893
aS'highrise'
p894
aS'form'
p895
aS'driverless'
p896
aS'bus'
p897
aS'4162078200'
p898
aS'inpain'
p899
aS'jus'
p900
aS'construction'
p901
aS'link'
p902
aS'nagar'
p903
aS'survived'
p904
aS'didnt'
p905
aS'line'
p906
aS'ghatna'
p907
aS'waffles'
p908
aS'whether'
p909
aS'inside'
p910
aS'kanjur'
p911
aS'smooth'
p912
aS'epicfail'
p913
aS'windows'
p914
aS'traffucked'
p915
aS'dirty'
p916
aS'smashed'
p917
aS'highlight'
p918
aS'minutes'
p919
aS'called'
p920
aS'jogeshwarivikroli'
p921
aS'required'
p922
aS'horrific'
p923
aS'cinema'
p924
aS'drive'
p925
aS'file'
p926
aS'reflecting'
p927
aS'explains'
p928
aS'check'
p929
aS'casualty'
p930
aS'rainbow'
p931
aS'gymnastics'
p932
aS'incredible'
p933
aS'deserve'
p934
aS'bmeckie'
p935
aS'tip'
p936
aS'propertycasualty360'
p937
aS'event'
p938
aS'started'
p939
aS'ridlrmum'
p940
aS'4162078199'
p941
aS'dakar'
p942
aS'you'
p943
aS'reckless'
p944
aS'derails'
p945
aS'draw'
p946
aS'sloped'
p947
aS'regardless'
p948
aS'dies'
p949
aS'update'
p950
aS'luxurious'
p951
aS'powai'
p952
aS'rifle'
p953
aS'important'
p954
aS'safetytip'
p955
aS'mumbaimerijaan'
p956
aS'song'
p957
aS'weekend'
p958
aS'died'
p959
aS'congested'
p960
aS'building'
p961
aS'accidents'
p962
aS'vehicles'
p963
aS'hitandrun'
p964
aS'together'
p965
aS'reports'
p966
aS'mass'
p967
aS'time'
p968
aS'serious'
p969
aS'overturned'
p970
aS'derailment'
p971
aS'buffalo'
p972
aS'sharinbhatti'
p973
aS'durganagar'
p974
asb(inltk.trainedobj
TrainedObject
p975
(dp976
S'prior'
p977
(dp978
S'non-situational'
p979
F0.4975369458128079
sS'situational'
p980
F0.5024630541871922
ssg2
g3
sS'condprob'
p981
ccollections
defaultdict
p982
(c__builtin__
dict
p983
tp984
Rp985
g5
(dp986
g979
F0.019417475728155338
sg980
F0.019230769230769232
ssg6
(dp987
g979
F0.019417475728155338
sg980
F0.009615384615384616
ssg7
(dp988
g979
F0.009708737864077669
sg980
F0.019230769230769232
ssg8
(dp989
g979
F0.009708737864077669
sg980
F0.038461538461538464
ssg9
(dp990
g979
F0.019417475728155338
sg980
F0.009615384615384616
ssg10
(dp991
g979
F0.009708737864077669
sg980
F0.019230769230769232
ssg11
(dp992
g979
F0.009708737864077669
sg980
F0.019230769230769232
ssg899
(dp993
g979
F0.019417475728155338
sg980
F0.009615384615384616
ssg12
(dp994
g979
F0.009708737864077669
sg980
F0.019230769230769232
ssg13
(dp995
g979
F0.009708737864077669
sg980
F0.019230769230769232
ssg15
(dp996
g979
F0.009708737864077669
sg980
F0.028846153846153848
ssg16
(dp997
g979
F0.019417475728155338
sg980
F0.009615384615384616
ssg17
(dp998
g979
F0.02912621359223301
sg980
F0.009615384615384616
ssg18
(dp999
g979
F0.019417475728155338
sg980
F0.009615384615384616
ssg19
(dp1000
g979
F0.019417475728155338
sg980
F0.009615384615384616
ssg699
(dp1001
g979
F0.009708737864077669
sg980
F0.019230769230769232
ssg20
(dp1002
g979
F0.019417475728155338
sg980
F0.009615384615384616
ssg21
(dp1003
g979
F0.019417475728155338
sg980
F0.009615384615384616
ssg22
(dp1004
g979
F0.009708737864077669
sg980
F0.019230769230769232
ssg23
(dp1005
g979
F0.02912621359223301
sg980
F0.009615384615384616
ssg24
(dp1006
g979
F0.009708737864077669
sg980
F0.019230769230769232
ssg26
(dp1007
g979
F0.019417475728155338
sg980
F0.04807692307692308
ssg27
(dp1008
g979
F0.009708737864077669
sg980
F0.019230769230769232
ssg916
(dp1009
g979
F0.019417475728155338
sg980
F0.009615384615384616
ssg28
(dp1010
g979
F0.019417475728155338
sg980
F0.009615384615384616
ssg29
(dp1011
g979
F0.019417475728155338
sg980
F0.009615384615384616
ssg30
(dp1012
g979
F0.019417475728155338
sg980
F0.009615384615384616
ssg31
(dp1013
g979
F0.009708737864077669
sg980
F0.028846153846153848
ssg34
(dp1014
g979
F0.009708737864077669
sg980
F0.1346153846153846
ssg669
(dp1015
g979
F0.019417475728155338
sg980
F0.009615384615384616
ssg36
(dp1016
g979
F0.019417475728155338
sg980
F0.028846153846153848
ssg37
(dp1017
g979
F0.019417475728155338
sg980
F0.009615384615384616
ssg38
(dp1018
g979
F0.009708737864077669
sg980
F0.019230769230769232
ssg39
(dp1019
g979
F0.009708737864077669
sg980
F0.019230769230769232
ssg40
(dp1020
g979
F0.009708737864077669
sg980
F0.019230769230769232
ssg42
(dp1021
g979
F0.009708737864077669
sg980
F0.019230769230769232
ssg43
(dp1022
g979
F0.009708737864077669
sg980
F0.019230769230769232
ssg44
(dp1023
g979
F0.009708737864077669
sg980
F0.019230769230769232
ssg259
(dp1024
g979
F0.009708737864077669
sg980
F0.019230769230769232
ssg46
(dp1025
g979
F0.019417475728155338
sg980
F0.009615384615384616
ssg262
(dp1026
g979
F0.019417475728155338
sg980
F0.009615384615384616
ssg48
(dp1027
g979
F0.019417475728155338
sg980
F0.009615384615384616
ssg855
(dp1028
g979
F0.02912621359223301
sg980
F0.009615384615384616
ssg49
(dp1029
g979
F0.009708737864077669
sg980
F0.019230769230769232
ssg50
(dp1030
g979
F0.009708737864077669
sg980
F0.11538461538461539
ssg675
(dp1031
g979
F0.009708737864077669
sg980
F0.019230769230769232
ssg51
(dp1032
g979
F0.009708737864077669
sg980
F0.038461538461538464
ssg52
(dp1033
g979
F0.019417475728155338
sg980
F0.009615384615384616
ssg53
(dp1034
g979
F0.009708737864077669
sg980
F0.019230769230769232
ssg335
(dp1035
g979
F0.019417475728155338
sg980
F0.019230769230769232
ssg55
(dp1036
g979
F0.019417475728155338
sg980
F0.009615384615384616
ssg56
(dp1037
g979
F0.019417475728155338
sg980
F0.009615384615384616
ssg511
(dp1038
g979
F0.009708737864077669
sg980
F0.28846153846153844
ssg58
(dp1039
g979
F0.009708737864077669
sg980
F0.028846153846153848
ssg971
(dp1040
g979
F0.019417475728155338
sg980
F0.009615384615384616
ssg60
(dp1041
g979
F0.02912621359223301
sg980
F0.009615384615384616
ssg61
(dp1042
g979
F0.009708737864077669
sg980
F0.028846153846153848
ssg62
(dp1043
g979
F0.009708737864077669
sg980
F0.019230769230769232
ssg63
(dp1044
g979
F0.019417475728155338
sg980
F0.009615384615384616
ssg65
(dp1045
g979
F0.019417475728155338
sg980
F0.009615384615384616
ssg66
(dp1046
g979
F0.009708737864077669
sg980
F0.028846153846153848
ssg67
(dp1047
g979
F0.009708737864077669
sg980
F0.019230769230769232
ssg68
(dp1048
g979
F0.009708737864077669
sg980
F0.019230769230769232
ssg70
(dp1049
g979
F0.009708737864077669
sg980
F0.019230769230769232
ssg71
(dp1050
g979
F0.038834951456310676
sg980
F0.009615384615384616
ssg846
(dp1051
g979
F0.009708737864077669
sg980
F0.019230769230769232
ssg780
(dp1052
g979
F0.009708737864077669
sg980
F0.10576923076923077
ssg73
(dp1053
g979
F0.019417475728155338
sg980
F0.009615384615384616
ssg74
(dp1054
g979
F0.019417475728155338
sg980
F0.009615384615384616
ssg75
(dp1055
g979
F0.009708737864077669
sg980
F0.019230769230769232
ssg76
(dp1056
g979
F0.009708737864077669
sg980
F0.019230769230769232
ssg77
(dp1057
g979
F0.019417475728155338
sg980
F0.019230769230769232
ssg78
(dp1058
g979
F0.019417475728155338
sg980
F0.009615384615384616
ssg79
(dp1059
g979
F0.019417475728155338
sg980
F0.019230769230769232
ssg706
(dp1060
g979
F0.009708737864077669
sg980
F0.019230769230769232
ssg782
(dp1061
g979
F0.009708737864077669
sg980
F0.019230769230769232
ssg64
(dp1062
g979
F0.009708737864077669
sg980
F0.019230769230769232
ssg82
(dp1063
g979
F0.009708737864077669
sg980
F0.019230769230769232
ssg83
(dp1064
g979
F0.009708737864077669
sg980
F0.019230769230769232
ssg85
(dp1065
g979
F0.019417475728155338
sg980
F0.009615384615384616
ssg86
(dp1066
g979
F0.02912621359223301
sg980
F0.009615384615384616
ssg87
(dp1067
g979
F0.02912621359223301
sg980
F0.009615384615384616
ssg507
(dp1068
g979
F0.009708737864077669
sg980
F0.019230769230769232
ssg89
(dp1069
g979
F0.02912621359223301
sg980
F0.009615384615384616
ssg707
(dp1070
g979
F0.04854368932038835
sg980
F0.009615384615384616
ssg90
(dp1071
g979
F0.009708737864077669
sg980
F0.019230769230769232
ssg91
(dp1072
g979
F0.009708737864077669
sg980
F0.019230769230769232
ssg92
(dp1073
g979
F0.019417475728155338
sg980
F0.009615384615384616
ssg757
(dp1074
g979
F0.009708737864077669
sg980
F0.028846153846153848
ssg93
(dp1075
g979
F0.019417475728155338
sg980
F0.019230769230769232
ssg95
(dp1076
g979
F0.009708737864077669
sg980
F0.038461538461538464
ssg939
(dp1077
g979
F0.019417475728155338
sg980
F0.009615384615384616
ssg96
(dp1078
g979
F0.019417475728155338
sg980
F0.009615384615384616
ssg97
(dp1079
g979
F0.019417475728155338
sg980
F0.009615384615384616
ssg682
(dp1080
g979
F0.009708737864077669
sg980
F0.019230769230769232
ssg99
(dp1081
g979
F0.009708737864077669
sg980
F0.019230769230769232
ssg100
(dp1082
g979
F0.019417475728155338
sg980
F0.009615384615384616
ssg101
(dp1083
g979
F0.019417475728155338
sg980
F0.009615384615384616
ssg102
(dp1084
g979
F0.009708737864077669
sg980
F0.028846153846153848
ssg103
(dp1085
g979
F0.009708737864077669
sg980
F0.019230769230769232
ssg104
(dp1086
g979
F0.019417475728155338
sg980
F0.009615384615384616
ssg105
(dp1087
g979
F0.02912621359223301
sg980
F0.009615384615384616
ssg106
(dp1088
g979
F0.019417475728155338
sg980
F0.009615384615384616
ssg107
(dp1089
g979
F0.019417475728155338
sg980
F0.009615384615384616
ssg108
(dp1090
g979
F0.019417475728155338
sg980
F0.009615384615384616
ssg109
(dp1091
g979
F0.009708737864077669
sg980
F0.019230769230769232
ssg110
(dp1092
g979
F0.038834951456310676
sg980
F0.019230769230769232
ssg111
(dp1093
g979
F0.019417475728155338
sg980
F0.009615384615384616
ssg112
(dp1094
g979
F0.019417475728155338
sg980
F0.009615384615384616
ssg113
(dp1095
g979
F0.009708737864077669
sg980
F0.028846153846153848
ssg346
(dp1096
g979
F0.009708737864077669
sg980
F0.019230769230769232
ssg25
(dp1097
g979
F0.019417475728155338
sg980
F0.009615384615384616
ssg116
(dp1098
g979
F0.019417475728155338
sg980
F0.009615384615384616
ssg117
(dp1099
g979
F0.009708737864077669
sg980
F0.028846153846153848
ssg118
(dp1100
g979
F0.019417475728155338
sg980
F0.009615384615384616
ssg119
(dp1101
g979
F0.019417475728155338
sg980
F0.009615384615384616
ssg120
(dp1102
g979
F0.009708737864077669
sg980
F0.019230769230769232
ssg122
(dp1103
g979
F0.019417475728155338
sg980
F0.009615384615384616
ssg123
(dp1104
g979
F0.019417475728155338
sg980
F0.009615384615384616
ssg124
(dp1105
g979
F0.019417475728155338
sg980
F0.009615384615384616
ssg125
(dp1106
g979
F0.02912621359223301
sg980
F0.009615384615384616
ssg126
(dp1107
g979
F0.038834951456310676
sg980
F0.009615384615384616
ssg127
(dp1108
g979
F0.019417475728155338
sg980
F0.009615384615384616
ssg128
(dp1109
g979
F0.019417475728155338
sg980
F0.009615384615384616
ssg129
(dp1110
g979
F0.038834951456310676
sg980
F0.009615384615384616
ssg854
(dp1111
g979
F0.009708737864077669
sg980
F0.019230769230769232
ssg131
(dp1112
g979
F0.009708737864077669
sg980
F0.019230769230769232
ssg132
(dp1113
g979
F0.02912621359223301
sg980
F0.009615384615384616
ssg133
(dp1114
g979
F0.009708737864077669
sg980
F0.019230769230769232
ssg134
(dp1115
g979
F0.009708737864077669
sg980
F0.019230769230769232
ssg516
(dp1116
g979
F0.009708737864077669
sg980
F0.019230769230769232
ssg136
(dp1117
g979
F0.009708737864077669
sg980
F0.019230769230769232
ssg137
(dp1118
g979
F0.019417475728155338
sg980
F0.009615384615384616
ssg138
(dp1119
g979
F0.019417475728155338
sg980
F0.009615384615384616
ssg139
(dp1120
g979
F0.019417475728155338
sg980
F0.009615384615384616
ssg140
(dp1121
g979
F0.009708737864077669
sg980
F0.019230769230769232
ssg142
(dp1122
g979
F0.019417475728155338
sg980
F0.009615384615384616
ssg143
(dp1123
g979
F0.009708737864077669
sg980
F0.019230769230769232
ssg852
(dp1124
g979
F0.009708737864077669
sg980
F0.019230769230769232
ssg14
(dp1125
g979
F0.019417475728155338
sg980
F0.009615384615384616
ssg147
(dp1126
g979
F0.019417475728155338
sg980
F0.009615384615384616
ssg520
(dp1127
g979
F0.009708737864077669
sg980
F0.028846153846153848
ssg149
(dp1128
g979
F0.02912621359223301
sg980
F0.019230769230769232
ssg150
(dp1129
g979
F0.009708737864077669
sg980
F0.019230769230769232
ssg151
(dp1130
g979
F0.019417475728155338
sg980
F0.009615384615384616
ssg152
(dp1131
g979
F0.019417475728155338
sg980
F0.009615384615384616
ssg153
(dp1132
g979
F0.009708737864077669
sg980
F0.019230769230769232
ssg154
(dp1133
g979
F0.009708737864077669
sg980
F0.019230769230769232
ssg155
(dp1134
g979
F0.019417475728155338
sg980
F0.009615384615384616
ssg156
(dp1135
g979
F0.038834951456310676
sg980
F0.028846153846153848
ssg158
(dp1136
g979
F0.009708737864077669
sg980
F0.019230769230769232
ssg159
(dp1137
g979
F0.009708737864077669
sg980
F0.019230769230769232
ssg366
(dp1138
g979
F0.009708737864077669
sg980
F0.028846153846153848
ssg160
(dp1139
g979
F0.019417475728155338
sg980
F0.009615384615384616
ssg161
(dp1140
g979
F0.038834951456310676
sg980
F0.028846153846153848
ssg162
(dp1141
g979
F0.019417475728155338
sg980
F0.009615384615384616
ssg163
(dp1142
g979
F0.009708737864077669
sg980
F0.028846153846153848
ssg164
(dp1143
g979
F0.009708737864077669
sg980
F0.019230769230769232
ssg797
(dp1144
g979
F0.009708737864077669
sg980
F0.019230769230769232
ssg166
(dp1145
g979
F0.009708737864077669
sg980
F0.10576923076923077
ssg167
(dp1146
g979
F0.009708737864077669
sg980
F0.019230769230769232
ssg168
(dp1147
g979
F0.009708737864077669
sg980
F0.04807692307692308
ssg169
(dp1148
g979
F0.009708737864077669
sg980
F0.019230769230769232
ssg170
(dp1149
g979
F0.019417475728155338
sg980
F0.009615384615384616
ssg171
(dp1150
g979
F0.009708737864077669
sg980
F0.019230769230769232
ssg172
(dp1151
g979
F0.009708737864077669
sg980
F0.019230769230769232
ssg173
(dp1152
g979
F0.009708737864077669
sg980
F0.019230769230769232
ssg174
(dp1153
g979
F0.13592233009708737
sg980
F0.057692307692307696
ssg175
(dp1154
g979
F0.038834951456310676
sg980
F0.009615384615384616
ssg176
(dp1155
g979
F0.019417475728155338
sg980
F0.009615384615384616
ssg177
(dp1156
g979
F0.019417475728155338
sg980
F0.009615384615384616
ssg178
(dp1157
g979
F0.009708737864077669
sg980
F0.019230769230769232
ssg599
(dp1158
g979
F0.019417475728155338
sg980
F0.009615384615384616
ssg180
(dp1159
g979
F0.019417475728155338
sg980
F0.009615384615384616
ssg181
(dp1160
g979
F0.019417475728155338
sg980
F0.009615384615384616
ssg182
(dp1161
g979
F0.019417475728155338
sg980
F0.009615384615384616
ssg183
(dp1162
g979
F0.009708737864077669
sg980
F0.019230769230769232
ssg696
(dp1163
g979
F0.009708737864077669
sg980
F0.028846153846153848
ssg185
(dp1164
g979
F0.009708737864077669
sg980
F0.019230769230769232
ssg186
(dp1165
g979
F0.019417475728155338
sg980
F0.009615384615384616
ssg404
(dp1166
g979
F0.009708737864077669
sg980
F0.019230769230769232
ssg880
(dp1167
g979
F0.009708737864077669
sg980
F0.019230769230769232
ssg189
(dp1168
g979
F0.02912621359223301
sg980
F0.009615384615384616
ssg190
(dp1169
g979
F0.009708737864077669
sg980
F0.019230769230769232
ssg697
(dp1170
g979
F0.009708737864077669
sg980
F0.019230769230769232
ssg192
(dp1171
g979
F0.02912621359223301
sg980
F0.019230769230769232
ssg193
(dp1172
g979
F0.009708737864077669
sg980
F0.019230769230769232
ssg194
(dp1173
g979
F0.019417475728155338
sg980
F0.009615384615384616
ssg195
(dp1174
g979
F0.009708737864077669
sg980
F0.019230769230769232
ssg196
(dp1175
g979
F0.019417475728155338
sg980
F0.009615384615384616
ssg197
(dp1176
g979
F0.019417475728155338
sg980
F0.009615384615384616
ssg198
(dp1177
g979
F0.02912621359223301
sg980
F0.009615384615384616
ssg925
(dp1178
g979
F0.02912621359223301
sg980
F0.009615384615384616
ssg200
(dp1179
g979
F0.019417475728155338
sg980
F0.009615384615384616
ssg201
(dp1180
g979
F0.02912621359223301
sg980
F0.009615384615384616
ssg179
(dp1181
g979
F0.009708737864077669
sg980
F0.019230769230769232
ssg204
(dp1182
g979
F0.009708737864077669
sg980
F0.019230769230769232
ssg4
(dp1183
g979
F0.019417475728155338
sg980
F0.009615384615384616
ssg206
(dp1184
g979
F0.019417475728155338
sg980
F0.009615384615384616
ssg207
(dp1185
g979
F0.009708737864077669
sg980
F0.028846153846153848
ssg208
(dp1186
g979
F0.019417475728155338
sg980
F0.019230769230769232
ssg209
(dp1187
g979
F0.009708737864077669
sg980
F0.019230769230769232
ssg755
(dp1188
g979
F0.009708737864077669
sg980
F0.019230769230769232
ssg361
(dp1189
g979
F0.009708737864077669
sg980
F0.019230769230769232
ssg211
(dp1190
g979
F0.019417475728155338
sg980
F0.009615384615384616
ssg292
(dp1191
g979
F0.009708737864077669
sg980
F0.028846153846153848
ssg213
(dp1192
g979
F0.02912621359223301
sg980
F0.009615384615384616
ssg303
(dp1193
g979
F0.019417475728155338
sg980
F0.009615384615384616
ssg215
(dp1194
g979
F0.009708737864077669
sg980
F0.019230769230769232
ssg216
(dp1195
g979
F0.02912621359223301
sg980
F0.009615384615384616
ssg217
(dp1196
g979
F0.009708737864077669
sg980
F0.019230769230769232
ssg218
(dp1197
g979
F0.019417475728155338
sg980
F0.009615384615384616
ssg219
(dp1198
g979
F0.009708737864077669
sg980
F0.0673076923076923
ssg220
(dp1199
g979
F0.019417475728155338
sg980
F0.009615384615384616
ssg221
(dp1200
g979
F0.019417475728155338
sg980
F0.009615384615384616
ssg222
(dp1201
g979
F0.009708737864077669
sg980
F0.019230769230769232
ssg666
(dp1202
g979
F0.019417475728155338
sg980
F0.009615384615384616
ssg224
(dp1203
g979
F0.009708737864077669
sg980
F0.019230769230769232
ssg225
(dp1204
g979
F0.009708737864077669
sg980
F0.019230769230769232
ssg226
(dp1205
g979
F0.009708737864077669
sg980
F0.028846153846153848
ssg227
(dp1206
g979
F0.038834951456310676
sg980
F0.009615384615384616
ssg228
(dp1207
g979
F0.038834951456310676
sg980
F0.038461538461538464
ssg229
(dp1208
g979
F0.009708737864077669
sg980
F0.019230769230769232
ssg47
(dp1209
g979
F0.009708737864077669
sg980
F0.019230769230769232
ssg230
(dp1210
g979
F0.009708737864077669
sg980
F0.019230769230769232
ssg932
(dp1211
g979
F0.019417475728155338
sg980
F0.009615384615384616
ssg231
(dp1212
g979
F0.009708737864077669
sg980
F0.019230769230769232
ssg232
(dp1213
g979
F0.009708737864077669
sg980
F0.019230769230769232
ssg233
(dp1214
g979
F0.009708737864077669
sg980
F0.019230769230769232
ssg234
(dp1215
g979
F0.019417475728155338
sg980
F0.028846153846153848
ssg235
(dp1216
g979
F0.02912621359223301
sg980
F0.009615384615384616
ssg236
(dp1217
g979
F0.019417475728155338
sg980
F0.009615384615384616
ssg237
(dp1218
g979
F0.02912621359223301
sg980
F0.009615384615384616
ssg239
(dp1219
g979
F0.009708737864077669
sg980
F0.019230769230769232
ssg240
(dp1220
g979
F0.019417475728155338
sg980
F0.009615384615384616
ssg241
(dp1221
g979
F0.019417475728155338
sg980
F0.009615384615384616
ssg609
(dp1222
g979
F0.019417475728155338
sg980
F0.009615384615384616
ssg243
(dp1223
g979
F0.019417475728155338
sg980
F0.009615384615384616
ssg184
(dp1224
g979
F0.04854368932038835
sg980
F0.009615384615384616
ssg245
(dp1225
g979
F0.019417475728155338
sg980
F0.009615384615384616
ssg247
(dp1226
g979
F0.019417475728155338
sg980
F0.009615384615384616
ssg248
(dp1227
g979
F0.038834951456310676
sg980
F0.009615384615384616
ssg249
(dp1228
g979
F0.009708737864077669
sg980
F0.019230769230769232
ssg250
(dp1229
g979
F0.009708737864077669
sg980
F0.028846153846153848
ssg543
(dp1230
g979
F0.009708737864077669
sg980
F0.019230769230769232
ssg251
(dp1231
g979
F0.019417475728155338
sg980
F0.009615384615384616
ssg252
(dp1232
g979
F0.019417475728155338
sg980
F0.009615384615384616
ssg253
(dp1233
g979
F0.009708737864077669
sg980
F0.019230769230769232
ssg254
(dp1234
g979
F0.02912621359223301
sg980
F0.009615384615384616
ssg256
(dp1235
g979
F0.019417475728155338
sg980
F0.009615384615384616
ssg257
(dp1236
g979
F0.019417475728155338
sg980
F0.009615384615384616
ssg443
(dp1237
g979
F0.019417475728155338
sg980
F0.009615384615384616
ssg45
(dp1238
g979
F0.009708737864077669
sg980
F0.019230769230769232
ssg260
(dp1239
g979
F0.038834951456310676
sg980
F0.028846153846153848
ssg261
(dp1240
g979
F0.009708737864077669
sg980
F0.019230769230769232
ssg263
(dp1241
g979
F0.019417475728155338
sg980
F0.019230769230769232
ssg264
(dp1242
g979
F0.019417475728155338
sg980
F0.009615384615384616
ssg265
(dp1243
g979
F0.009708737864077669
sg980
F0.019230769230769232
ssg266
(dp1244
g979
F0.02912621359223301
sg980
F0.009615384615384616
ssg267
(dp1245
g979
F0.019417475728155338
sg980
F0.009615384615384616
ssg268
(dp1246
g979
F0.009708737864077669
sg980
F0.038461538461538464
ssg269
(dp1247
g979
F0.009708737864077669
sg980
F0.019230769230769232
ssg270
(dp1248
g979
F0.019417475728155338
sg980
F0.009615384615384616
ssg271
(dp1249
g979
F0.019417475728155338
sg980
F0.009615384615384616
ssg272
(dp1250
g979
F0.019417475728155338
sg980
F0.009615384615384616
ssg273
(dp1251
g979
F0.019417475728155338
sg980
F0.009615384615384616
ssg274
(dp1252
g979
F0.009708737864077669
sg980
F0.019230769230769232
ssg275
(dp1253
g979
F0.009708737864077669
sg980
F0.019230769230769232
ssg276
(dp1254
g979
F0.019417475728155338
sg980
F0.009615384615384616
ssg277
(dp1255
g979
F0.019417475728155338
sg980
F0.009615384615384616
ssg278
(dp1256
g979
F0.009708737864077669
sg980
F0.028846153846153848
ssg279
(dp1257
g979
F0.019417475728155338
sg980
F0.009615384615384616
ssg345
(dp1258
g979
F0.009708737864077669
sg980
F0.04807692307692308
ssg281
(dp1259
g979
F0.019417475728155338
sg980
F0.009615384615384616
ssg282
(dp1260
g979
F0.019417475728155338
sg980
F0.009615384615384616
ssg283
(dp1261
g979
F0.038834951456310676
sg980
F0.038461538461538464
ssg872
(dp1262
g979
F0.009708737864077669
sg980
F0.038461538461538464
ssg284
(dp1263
g979
F0.019417475728155338
sg980
F0.028846153846153848
ssg285
(dp1264
g979
F0.009708737864077669
sg980
F0.019230769230769232
ssg286
(dp1265
g979
F0.009708737864077669
sg980
F0.019230769230769232
ssg287
(dp1266
g979
F0.009708737864077669
sg980
F0.028846153846153848
ssg288
(dp1267
g979
F0.009708737864077669
sg980
F0.019230769230769232
ssg873
(dp1268
g979
F0.019417475728155338
sg980
F0.038461538461538464
ssg289
(dp1269
g979
F0.009708737864077669
sg980
F0.038461538461538464
ssg290
(dp1270
g979
F0.019417475728155338
sg980
F0.009615384615384616
ssg862
(dp1271
g979
F0.019417475728155338
sg980
F0.009615384615384616
ssg144
(dp1272
g979
F0.019417475728155338
sg980
F0.009615384615384616
ssg450
(dp1273
g979
F0.019417475728155338
sg980
F0.009615384615384616
ssg294
(dp1274
g979
F0.009708737864077669
sg980
F0.019230769230769232
ssg295
(dp1275
g979
F0.009708737864077669
sg980
F0.028846153846153848
ssg296
(dp1276
g979
F0.019417475728155338
sg980
F0.009615384615384616
ssg297
(dp1277
g979
F0.019417475728155338
sg980
F0.009615384615384616
ssg298
(dp1278
g979
F0.019417475728155338
sg980
F0.009615384615384616
ssg299
(dp1279
g979
F0.009708737864077669
sg980
F0.019230769230769232
ssg550
(dp1280
g979
F0.019417475728155338
sg980
F0.009615384615384616
ssg301
(dp1281
g979
F0.009708737864077669
sg980
F0.019230769230769232
ssg302
(dp1282
g979
F0.009708737864077669
sg980
F0.019230769230769232
ssg305
(dp1283
g979
F0.019417475728155338
sg980
F0.009615384615384616
ssg306
(dp1284
g979
F0.009708737864077669
sg980
F0.038461538461538464
ssg716
(dp1285
g979
F0.009708737864077669
sg980
F0.028846153846153848
ssg308
(dp1286
g979
F0.009708737864077669
sg980
F0.019230769230769232
ssg309
(dp1287
g979
F0.02912621359223301
sg980
F0.019230769230769232
ssg310
(dp1288
g979
F0.009708737864077669
sg980
F0.019230769230769232
ssg311
(dp1289
g979
F0.009708737864077669
sg980
F0.019230769230769232
ssg312
(dp1290
g979
F0.009708737864077669
sg980
F0.019230769230769232
ssg313
(dp1291
g979
F0.019417475728155338
sg980
F0.009615384615384616
ssg314
(dp1292
g979
F0.019417475728155338
sg980
F0.009615384615384616
ssg315
(dp1293
g979
F0.009708737864077669
sg980
F0.019230769230769232
ssg316
(dp1294
g979
F0.02912621359223301
sg980
F0.009615384615384616
ssg317
(dp1295
g979
F0.05825242718446602
sg980
F0.019230769230769232
ssg553
(dp1296
g979
F0.009708737864077669
sg980
F0.019230769230769232
ssg319
(dp1297
g979
F0.009708737864077669
sg980
F0.028846153846153848
ssg320
(dp1298
g979
F0.009708737864077669
sg980
F0.019230769230769232
ssg321
(dp1299
g979
F0.019417475728155338
sg980
F0.009615384615384616
ssg322
(dp1300
g979
F0.019417475728155338
sg980
F0.009615384615384616
ssg323
(dp1301
g979
F0.019417475728155338
sg980
F0.009615384615384616
ssg324
(dp1302
g979
F0.019417475728155338
sg980
F0.019230769230769232
ssg325
(dp1303
g979
F0.02912621359223301
sg980
F0.009615384615384616
ssg326
(dp1304
g979
F0.019417475728155338
sg980
F0.009615384615384616
ssg327
(dp1305
g979
F0.019417475728155338
sg980
F0.019230769230769232
ssg328
(dp1306
g979
F0.009708737864077669
sg980
F0.019230769230769232
ssg329
(dp1307
g979
F0.009708737864077669
sg980
F0.019230769230769232
ssg330
(dp1308
g979
F0.019417475728155338
sg980
F0.009615384615384616
ssg331
(dp1309
g979
F0.019417475728155338
sg980
F0.028846153846153848
ssg332
(dp1310
g979
F0.009708737864077669
sg980
F0.019230769230769232
ssg953
(dp1311
g979
F0.019417475728155338
sg980
F0.009615384615384616
ssg333
(dp1312
g979
F0.019417475728155338
sg980
F0.009615384615384616
ssg334
(dp1313
g979
F0.02912621359223301
sg980
F0.009615384615384616
ssg54
(dp1314
g979
F0.009708737864077669
sg980
F0.14423076923076922
ssg397
(dp1315
g979
F0.019417475728155338
sg980
F0.009615384615384616
ssg81
(dp1316
g979
F0.009708737864077669
sg980
F0.019230769230769232
ssg339
(dp1317
g979
F0.019417475728155338
sg980
F0.009615384615384616
ssg340
(dp1318
g979
F0.019417475728155338
sg980
F0.009615384615384616
ssg341
(dp1319
g979
F0.009708737864077669
sg980
F0.07692307692307693
ssg342
(dp1320
g979
F0.009708737864077669
sg980
F0.028846153846153848
ssg343
(dp1321
g979
F0.019417475728155338
sg980
F0.009615384615384616
ssg344
(dp1322
g979
F0.019417475728155338
sg980
F0.009615384615384616
ssg114
(dp1323
g979
F0.019417475728155338
sg980
F0.009615384615384616
ssg347
(dp1324
g979
F0.019417475728155338
sg980
F0.009615384615384616
ssg348
(dp1325
g979
F0.019417475728155338
sg980
F0.009615384615384616
ssg349
(dp1326
g979
F0.019417475728155338
sg980
F0.009615384615384616
ssg350
(dp1327
g979
F0.02912621359223301
sg980
F0.009615384615384616
ssg794
(dp1328
g979
F0.009708737864077669
sg980
F0.019230769230769232
ssg351
(dp1329
g979
F0.009708737864077669
sg980
F0.019230769230769232
ssg352
(dp1330
g979
F0.019417475728155338
sg980
F0.009615384615384616
ssg354
(dp1331
g979
F0.02912621359223301
sg980
F0.009615384615384616
ssg355
(dp1332
g979
F0.009708737864077669
sg980
F0.019230769230769232
ssg356
(dp1333
g979
F0.009708737864077669
sg980
F0.019230769230769232
ssg357
(dp1334
g979
F0.019417475728155338
sg980
F0.009615384615384616
ssg358
(dp1335
g979
F0.019417475728155338
sg980
F0.009615384615384616
ssg359
(dp1336
g979
F0.02912621359223301
sg980
F0.009615384615384616
ssg360
(dp1337
g979
F0.038834951456310676
sg980
F0.009615384615384616
ssg210
(dp1338
g979
F0.019417475728155338
sg980
F0.009615384615384616
ssg214
(dp1339
g979
F0.019417475728155338
sg980
F0.009615384615384616
ssg363
(dp1340
g979
F0.019417475728155338
sg980
F0.009615384615384616
ssg242
(dp1341
g979
F0.019417475728155338
sg980
F0.009615384615384616
ssg365
(dp1342
g979
F0.009708737864077669
sg980
F0.038461538461538464
ssg238
(dp1343
g979
F0.04854368932038835
sg980
F0.009615384615384616
ssg562
(dp1344
g979
F0.009708737864077669
sg980
F0.019230769230769232
ssg368
(dp1345
g979
F0.009708737864077669
sg980
F0.0673076923076923
ssg369
(dp1346
g979
F0.038834951456310676
sg980
F0.028846153846153848
ssg371
(dp1347
g979
F0.009708737864077669
sg980
F0.019230769230769232
ssg372
(dp1348
g979
F0.019417475728155338
sg980
F0.009615384615384616
ssg373
(dp1349
g979
F0.019417475728155338
sg980
F0.009615384615384616
ssg374
(dp1350
g979
F0.02912621359223301
sg980
F0.019230769230769232
ssg375
(dp1351
g979
F0.04854368932038835
sg980
F0.057692307692307696
ssg377
(dp1352
g979
F0.019417475728155338
sg980
F0.019230769230769232
ssg885
(dp1353
g979
F0.02912621359223301
sg980
F0.009615384615384616
ssg379
(dp1354
g979
F0.019417475728155338
sg980
F0.028846153846153848
ssg381
(dp1355
g979
F0.019417475728155338
sg980
F0.009615384615384616
ssg199
(dp1356
g979
F0.019417475728155338
sg980
F0.019230769230769232
ssg715
(dp1357
g979
F0.019417475728155338
sg980
F0.009615384615384616
ssg384
(dp1358
g979
F0.019417475728155338
sg980
F0.009615384615384616
ssg364
(dp1359
g979
F0.009708737864077669
sg980
F0.019230769230769232
ssg386
(dp1360
g979
F0.019417475728155338
sg980
F0.009615384615384616
ssg387
(dp1361
g979
F0.009708737864077669
sg980
F0.019230769230769232
ssg388
(dp1362
g979
F0.009708737864077669
sg980
F0.019230769230769232
ssg389
(dp1363
g979
F0.019417475728155338
sg980
F0.009615384615384616
ssg390
(dp1364
g979
F0.009708737864077669
sg980
F0.019230769230769232
ssg391
(dp1365
g979
F0.009708737864077669
sg980
F0.1346153846153846
ssg392
(dp1366
g979
F0.009708737864077669
sg980
F0.07692307692307693
ssg393
(dp1367
g979
F0.019417475728155338
sg980
F0.009615384615384616
ssg394
(dp1368
g979
F0.019417475728155338
sg980
F0.009615384615384616
ssg395
(dp1369
g979
F0.019417475728155338
sg980
F0.009615384615384616
ssg396
(dp1370
g979
F0.009708737864077669
sg980
F0.1346153846153846
ssg376
(dp1371
g979
F0.019417475728155338
sg980
F0.009615384615384616
ssg399
(dp1372
g979
F0.02912621359223301
sg980
F0.019230769230769232
ssg400
(dp1373
g979
F0.019417475728155338
sg980
F0.009615384615384616
ssg401
(dp1374
g979
F0.009708737864077669
sg980
F0.019230769230769232
ssg402
(dp1375
g979
F0.019417475728155338
sg980
F0.009615384615384616
ssg889
(dp1376
g979
F0.009708737864077669
sg980
F0.019230769230769232
ssg405
(dp1377
g979
F0.019417475728155338
sg980
F0.009615384615384616
ssg888
(dp1378
g979
F0.019417475728155338
sg980
F0.009615384615384616
ssg406
(dp1379
g979
F0.009708737864077669
sg980
F0.019230769230769232
ssg407
(dp1380
g979
F0.009708737864077669
sg980
F0.019230769230769232
ssg408
(dp1381
g979
F0.009708737864077669
sg980
F0.019230769230769232
ssg409
(dp1382
g979
F0.019417475728155338
sg980
F0.009615384615384616
ssg410
(dp1383
g979
F0.009708737864077669
sg980
F0.019230769230769232
ssg411
(dp1384
g979
F0.009708737864077669
sg980
F0.019230769230769232
ssg412
(dp1385
g979
F0.009708737864077669
sg980
F0.019230769230769232
ssg413
(dp1386
g979
F0.009708737864077669
sg980
F0.028846153846153848
ssg414
(dp1387
g979
F0.009708737864077669
sg980
F0.09615384615384616
ssg415
(dp1388
g979
F0.009708737864077669
sg980
F0.019230769230769232
ssg416
(dp1389
g979
F0.009708737864077669
sg980
F0.028846153846153848
ssg417
(dp1390
g979
F0.009708737864077669
sg980
F0.019230769230769232
ssg188
(dp1391
g979
F0.019417475728155338
sg980
F0.009615384615384616
ssg419
(dp1392
g979
F0.019417475728155338
sg980
F0.009615384615384616
ssg420
(dp1393
g979
F0.009708737864077669
sg980
F0.019230769230769232
ssg421
(dp1394
g979
F0.019417475728155338
sg980
F0.009615384615384616
ssg555
(dp1395
g979
F0.019417475728155338
sg980
F0.009615384615384616
ssg424
(dp1396
g979
F0.009708737864077669
sg980
F0.019230769230769232
ssg426
(dp1397
g979
F0.019417475728155338
sg980
F0.009615384615384616
ssg427
(dp1398
g979
F0.019417475728155338
sg980
F0.009615384615384616
ssg428
(dp1399
g979
F0.019417475728155338
sg980
F0.009615384615384616
ssg429
(dp1400
g979
F0.02912621359223301
sg980
F0.009615384615384616
ssg398
(dp1401
g979
F0.009708737864077669
sg980
F0.019230769230769232
ssg431
(dp1402
g979
F0.019417475728155338
sg980
F0.009615384615384616
ssg432
(dp1403
g979
F0.019417475728155338
sg980
F0.009615384615384616
ssg737
(dp1404
g979
F0.009708737864077669
sg980
F0.028846153846153848
ssg434
(dp1405
g979
F0.009708737864077669
sg980
F0.04807692307692308
ssg738
(dp1406
g979
F0.019417475728155338
sg980
F0.019230769230769232
ssg435
(dp1407
g979
F0.009708737864077669
sg980
F0.028846153846153848
ssg436
(dp1408
g979
F0.019417475728155338
sg980
F0.009615384615384616
ssg437
(dp1409
g979
F0.019417475728155338
sg980
F0.009615384615384616
ssg893
(dp1410
g979
F0.02912621359223301
sg980
F0.019230769230769232
ssg370
(dp1411
g979
F0.019417475728155338
sg980
F0.009615384615384616
ssg440
(dp1412
g979
F0.009708737864077669
sg980
F0.019230769230769232
ssg441
(dp1413
g979
F0.019417475728155338
sg980
F0.009615384615384616
ssg442
(dp1414
g979
F0.019417475728155338
sg980
F0.019230769230769232
ssg871
(dp1415
g979
F0.019417475728155338
sg980
F0.009615384615384616
ssg444
(dp1416
g979
F0.02912621359223301
sg980
F0.019230769230769232
ssg445
(dp1417
g979
F0.009708737864077669
sg980
F0.019230769230769232
ssg446
(dp1418
g979
F0.009708737864077669
sg980
F0.019230769230769232
ssg575
(dp1419
g979
F0.009708737864077669
sg980
F0.019230769230769232
ssg448
(dp1420
g979
F0.019417475728155338
sg980
F0.009615384615384616
ssg449
(dp1421
g979
F0.019417475728155338
sg980
F0.009615384615384616
ssg425
(dp1422
g979
F0.019417475728155338
sg980
F0.009615384615384616
ssg452
(dp1423
g979
F0.019417475728155338
sg980
F0.009615384615384616
ssg453
(dp1424
g979
F0.02912621359223301
sg980
F0.009615384615384616
ssg454
(dp1425
g979
F0.009708737864077669
sg980
F0.028846153846153848
ssg455
(dp1426
g979
F0.019417475728155338
sg980
F0.009615384615384616
ssg744
(dp1427
g979
F0.019417475728155338
sg980
F0.009615384615384616
ssg457
(dp1428
g979
F0.019417475728155338
sg980
F0.038461538461538464
ssg458
(dp1429
g979
F0.019417475728155338
sg980
F0.009615384615384616
ssg459
(dp1430
g979
F0.009708737864077669
sg980
F0.028846153846153848
ssg460
(dp1431
g979
F0.009708737864077669
sg980
F0.019230769230769232
ssg461
(dp1432
g979
F0.019417475728155338
sg980
F0.009615384615384616
ssg505
(dp1433
g979
F0.019417475728155338
sg980
F0.009615384615384616
ssg304
(dp1434
g979
F0.019417475728155338
sg980
F0.009615384615384616
ssg464
(dp1435
g979
F0.009708737864077669
sg980
F0.019230769230769232
ssg861
(dp1436
g979
F0.009708737864077669
sg980
F0.019230769230769232
ssg465
(dp1437
g979
F0.009708737864077669
sg980
F0.019230769230769232
ssg467
(dp1438
g979
F0.009708737864077669
sg980
F0.11538461538461539
ssg280
(dp1439
g979
F0.038834951456310676
sg980
F0.04807692307692308
ssg468
(dp1440
g979
F0.019417475728155338
sg980
F0.009615384615384616
ssg362
(dp1441
g979
F0.009708737864077669
sg980
F0.019230769230769232
ssg470
(dp1442
g979
F0.019417475728155338
sg980
F0.009615384615384616
ssg472
(dp1443
g979
F0.009708737864077669
sg980
F0.019230769230769232
ssg473
(dp1444
g979
F0.009708737864077669
sg980
F0.019230769230769232
ssg832
(dp1445
g979
F0.019417475728155338
sg980
F0.009615384615384616
ssg475
(dp1446
g979
F0.009708737864077669
sg980
F0.019230769230769232
ssg747
(dp1447
g979
F0.009708737864077669
sg980
F0.019230769230769232
ssg477
(dp1448
g979
F0.019417475728155338
sg980
F0.009615384615384616
ssg478
(dp1449
g979
F0.019417475728155338
sg980
F0.009615384615384616
ssg900
(dp1450
g979
F0.009708737864077669
sg980
F0.019230769230769232
ssg480
(dp1451
g979
F0.009708737864077669
sg980
F0.019230769230769232
ssg481
(dp1452
g979
F0.019417475728155338
sg980
F0.009615384615384616
ssg482
(dp1453
g979
F0.009708737864077669
sg980
F0.028846153846153848
ssg483
(dp1454
g979
F0.019417475728155338
sg980
F0.009615384615384616
ssg484
(dp1455
g979
F0.019417475728155338
sg980
F0.009615384615384616
ssg485
(dp1456
g979
F0.009708737864077669
sg980
F0.019230769230769232
ssg486
(dp1457
g979
F0.019417475728155338
sg980
F0.009615384615384616
ssg487
(dp1458
g979
F0.02912621359223301
sg980
F0.009615384615384616
ssg902
(dp1459
g979
F0.009708737864077669
sg980
F0.04807692307692308
ssg489
(dp1460
g979
F0.02912621359223301
sg980
F0.009615384615384616
ssg490
(dp1461
g979
F0.019417475728155338
sg980
F0.009615384615384616
ssg491
(dp1462
g979
F0.02912621359223301
sg980
F0.009615384615384616
ssg492
(dp1463
g979
F0.019417475728155338
sg980
F0.009615384615384616
ssg494
(dp1464
g979
F0.019417475728155338
sg980
F0.009615384615384616
ssg495
(dp1465
g979
F0.009708737864077669
sg980
F0.019230769230769232
ssg496
(dp1466
g979
F0.009708737864077669
sg980
F0.019230769230769232
ssg498
(dp1467
g979
F0.009708737864077669
sg980
F0.019230769230769232
ssg499
(dp1468
g979
F0.009708737864077669
sg980
F0.019230769230769232
ssg500
(dp1469
g979
F0.019417475728155338
sg980
F0.009615384615384616
ssg501
(dp1470
g979
F0.009708737864077669
sg980
F0.019230769230769232
ssg502
(dp1471
g979
F0.019417475728155338
sg980
F0.009615384615384616
ssg503
(dp1472
g979
F0.019417475728155338
sg980
F0.009615384615384616
ssg504
(dp1473
g979
F0.009708737864077669
sg980
F0.028846153846153848
ssg80
(dp1474
g979
F0.019417475728155338
sg980
F0.009615384615384616
ssg506
(dp1475
g979
F0.009708737864077669
sg980
F0.019230769230769232
ssg88
(dp1476
g979
F0.019417475728155338
sg980
F0.009615384615384616
ssg508
(dp1477
g979
F0.009708737864077669
sg980
F0.019230769230769232
ssg509
(dp1478
g979
F0.019417475728155338
sg980
F0.009615384615384616
ssg510
(dp1479
g979
F0.019417475728155338
sg980
F0.0673076923076923
ssg907
(dp1480
g979
F0.009708737864077669
sg980
F0.019230769230769232
ssg32
(dp1481
g979
F0.019417475728155338
sg980
F0.009615384615384616
ssg512
(dp1482
g979
F0.019417475728155338
sg980
F0.009615384615384616
ssg513
(dp1483
g979
F0.009708737864077669
sg980
F0.038461538461538464
ssg514
(dp1484
g979
F0.019417475728155338
sg980
F0.009615384615384616
ssg588
(dp1485
g979
F0.009708737864077669
sg980
F0.019230769230769232
ssg135
(dp1486
g979
F0.019417475728155338
sg980
F0.009615384615384616
ssg517
(dp1487
g979
F0.019417475728155338
sg980
F0.009615384615384616
ssg518
(dp1488
g979
F0.009708737864077669
sg980
F0.019230769230769232
ssg519
(dp1489
g979
F0.009708737864077669
sg980
F0.019230769230769232
ssg148
(dp1490
g979
F0.019417475728155338
sg980
F0.038461538461538464
ssg521
(dp1491
g979
F0.019417475728155338
sg980
F0.009615384615384616
ssg523
(dp1492
g979
F0.009708737864077669
sg980
F0.028846153846153848
ssg524
(dp1493
g979
F0.019417475728155338
sg980
F0.009615384615384616
ssg525
(dp1494
g979
F0.019417475728155338
sg980
F0.009615384615384616
ssg526
(dp1495
g979
F0.009708737864077669
sg980
F0.019230769230769232
ssg527
(dp1496
g979
F0.019417475728155338
sg980
F0.028846153846153848
ssg528
(dp1497
g979
F0.009708737864077669
sg980
F0.019230769230769232
ssg529
(dp1498
g979
F0.02912621359223301
sg980
F0.009615384615384616
ssg530
(dp1499
g979
F0.019417475728155338
sg980
F0.009615384615384616
ssg531
(dp1500
g979
F0.038834951456310676
sg980
F0.019230769230769232
ssg532
(dp1501
g979
F0.0970873786407767
sg980
F0.019230769230769232
ssg533
(dp1502
g979
F0.009708737864077669
sg980
F0.019230769230769232
ssg534
(dp1503
g979
F0.019417475728155338
sg980
F0.009615384615384616
ssg535
(dp1504
g979
F0.009708737864077669
sg980
F0.1346153846153846
ssg808
(dp1505
g979
F0.009708737864077669
sg980
F0.019230769230769232
ssg680
(dp1506
g979
F0.019417475728155338
sg980
F0.009615384615384616
ssg536
(dp1507
g979
F0.009708737864077669
sg980
F0.028846153846153848
ssg493
(dp1508
g979
F0.019417475728155338
sg980
F0.009615384615384616
ssg538
(dp1509
g979
F0.009708737864077669
sg980
F0.019230769230769232
ssg539
(dp1510
g979
F0.019417475728155338
sg980
F0.009615384615384616
ssg540
(dp1511
g979
F0.02912621359223301
sg980
F0.009615384615384616
ssg380
(dp1512
g979
F0.019417475728155338
sg980
F0.009615384615384616
ssg542
(dp1513
g979
F0.019417475728155338
sg980
F0.009615384615384616
ssg255
(dp1514
g979
F0.02912621359223301
sg980
F0.009615384615384616
ssg544
(dp1515
g979
F0.019417475728155338
sg980
F0.009615384615384616
ssg545
(dp1516
g979
F0.019417475728155338
sg980
F0.009615384615384616
ssg546
(dp1517
g979
F0.019417475728155338
sg980
F0.009615384615384616
ssg547
(dp1518
g979
F0.019417475728155338
sg980
F0.009615384615384616
ssg548
(dp1519
g979
F0.019417475728155338
sg980
F0.019230769230769232
ssg293
(dp1520
g979
F0.019417475728155338
sg980
F0.009615384615384616
ssg300
(dp1521
g979
F0.019417475728155338
sg980
F0.009615384615384616
ssg551
(dp1522
g979
F0.009708737864077669
sg980
F0.019230769230769232
ssg552
(dp1523
g979
F0.019417475728155338
sg980
F0.009615384615384616
ssg318
(dp1524
g979
F0.019417475728155338
sg980
F0.009615384615384616
ssg554
(dp1525
g979
F0.019417475728155338
sg980
F0.009615384615384616
ssg556
(dp1526
g979
F0.02912621359223301
sg980
F0.057692307692307696
ssg557
(dp1527
g979
F0.019417475728155338
sg980
F0.009615384615384616
ssg559
(dp1528
g979
F0.019417475728155338
sg980
F0.009615384615384616
ssg560
(dp1529
g979
F0.019417475728155338
sg980
F0.009615384615384616
ssg756
(dp1530
g979
F0.009708737864077669
sg980
F0.019230769230769232
ssg367
(dp1531
g979
F0.019417475728155338
sg980
F0.009615384615384616
ssg595
(dp1532
g979
F0.019417475728155338
sg980
F0.009615384615384616
ssg564
(dp1533
g979
F0.019417475728155338
sg980
F0.009615384615384616
ssg565
(dp1534
g979
F0.019417475728155338
sg980
F0.009615384615384616
ssg566
(dp1535
g979
F0.009708737864077669
sg980
F0.019230769230769232
ssg567
(dp1536
g979
F0.009708737864077669
sg980
F0.028846153846153848
ssg594
(dp1537
g979
F0.009708737864077669
sg980
F0.019230769230769232
ssg568
(dp1538
g979
F0.019417475728155338
sg980
F0.009615384615384616
ssg569
(dp1539
g979
F0.019417475728155338
sg980
F0.009615384615384616
ssg570
(dp1540
g979
F0.009708737864077669
sg980
F0.019230769230769232
ssg571
(dp1541
g979
F0.019417475728155338
sg980
F0.019230769230769232
ssg572
(dp1542
g979
F0.019417475728155338
sg980
F0.009615384615384616
ssg573
(dp1543
g979
F0.019417475728155338
sg980
F0.009615384615384616
ssg574
(dp1544
g979
F0.019417475728155338
sg980
F0.009615384615384616
ssg447
(dp1545
g979
F0.009708737864077669
sg980
F0.019230769230769232
ssg576
(dp1546
g979
F0.009708737864077669
sg980
F0.04807692307692308
ssg577
(dp1547
g979
F0.009708737864077669
sg980
F0.019230769230769232
ssg578
(dp1548
g979
F0.019417475728155338
sg980
F0.009615384615384616
ssg579
(dp1549
g979
F0.019417475728155338
sg980
F0.009615384615384616
ssg580
(dp1550
g979
F0.019417475728155338
sg980
F0.009615384615384616
ssg581
(dp1551
g979
F0.019417475728155338
sg980
F0.009615384615384616
ssg583
(dp1552
g979
F0.009708737864077669
sg980
F0.028846153846153848
ssg584
(dp1553
g979
F0.019417475728155338
sg980
F0.009615384615384616
ssg597
(dp1554
g979
F0.019417475728155338
sg980
F0.009615384615384616
ssg586
(dp1555
g979
F0.009708737864077669
sg980
F0.019230769230769232
ssg761
(dp1556
g979
F0.009708737864077669
sg980
F0.019230769230769232
ssg515
(dp1557
g979
F0.019417475728155338
sg980
F0.009615384615384616
ssg915
(dp1558
g979
F0.009708737864077669
sg980
F0.019230769230769232
ssg589
(dp1559
g979
F0.019417475728155338
sg980
F0.009615384615384616
ssg590
(dp1560
g979
F0.009708737864077669
sg980
F0.019230769230769232
ssg418
(dp1561
g979
F0.009708737864077669
sg980
F0.019230769230769232
ssg874
(dp1562
g979
F0.019417475728155338
sg980
F0.009615384615384616
ssg592
(dp1563
g979
F0.019417475728155338
sg980
F0.009615384615384616
ssg593
(dp1564
g979
F0.009708737864077669
sg980
F0.019230769230769232
ssg94
(dp1565
g979
F0.019417475728155338
sg980
F0.009615384615384616
ssg563
(dp1566
g979
F0.02912621359223301
sg980
F0.009615384615384616
ssg596
(dp1567
g979
F0.019417475728155338
sg980
F0.009615384615384616
ssg585
(dp1568
g979
F0.019417475728155338
sg980
F0.009615384615384616
ssg598
(dp1569
g979
F0.009708737864077669
sg980
F0.019230769230769232
ssg600
(dp1570
g979
F0.019417475728155338
sg980
F0.009615384615384616
ssg601
(dp1571
g979
F0.009708737864077669
sg980
F0.019230769230769232
ssg385
(dp1572
g979
F0.019417475728155338
sg980
F0.019230769230769232
ssg603
(dp1573
g979
F0.009708737864077669
sg980
F0.028846153846153848
ssg604
(dp1574
g979
F0.019417475728155338
sg980
F0.009615384615384616
ssg59
(dp1575
g979
F0.019417475728155338
sg980
F0.009615384615384616
ssg606
(dp1576
g979
F0.019417475728155338
sg980
F0.009615384615384616
ssg607
(dp1577
g979
F0.02912621359223301
sg980
F0.04807692307692308
ssg608
(dp1578
g979
F0.009708737864077669
sg980
F0.019230769230769232
ssg610
(dp1579
g979
F0.02912621359223301
sg980
F0.009615384615384616
ssg611
(dp1580
g979
F0.9805825242718447
sg980
F0.9903846153846154
ssg612
(dp1581
g979
F0.019417475728155338
sg980
F0.057692307692307696
ssg613
(dp1582
g979
F0.019417475728155338
sg980
F0.019230769230769232
ssg558
(dp1583
g979
F0.019417475728155338
sg980
F0.009615384615384616
ssg338
(dp1584
g979
F0.038834951456310676
sg980
F0.057692307692307696
ssg602
(dp1585
g979
F0.009708737864077669
sg980
F0.019230769230769232
ssg617
(dp1586
g979
F0.009708737864077669
sg980
F0.019230769230769232
ssg618
(dp1587
g979
F0.009708737864077669
sg980
F0.019230769230769232
ssg619
(dp1588
g979
F0.019417475728155338
sg980
F0.009615384615384616
ssg620
(dp1589
g979
F0.009708737864077669
sg980
F0.04807692307692308
ssg621
(dp1590
g979
F0.02912621359223301
sg980
F0.009615384615384616
ssg622
(dp1591
g979
F0.019417475728155338
sg980
F0.009615384615384616
ssg623
(dp1592
g979
F0.009708737864077669
sg980
F0.019230769230769232
ssg624
(dp1593
g979
F0.019417475728155338
sg980
F0.009615384615384616
ssg605
(dp1594
g979
F0.009708737864077669
sg980
F0.019230769230769232
ssg626
(dp1595
g979
F0.019417475728155338
sg980
F0.009615384615384616
ssg886
(dp1596
g979
F0.009708737864077669
sg980
F0.019230769230769232
ssg627
(dp1597
g979
F0.009708737864077669
sg980
F0.019230769230769232
ssg628
(dp1598
g979
F0.009708737864077669
sg980
F0.019230769230769232
ssg629
(dp1599
g979
F0.019417475728155338
sg980
F0.009615384615384616
ssg630
(dp1600
g979
F0.009708737864077669
sg980
F0.019230769230769232
ssg591
(dp1601
g979
F0.009708737864077669
sg980
F0.019230769230769232
ssg631
(dp1602
g979
F0.009708737864077669
sg980
F0.019230769230769232
ssg632
(dp1603
g979
F0.009708737864077669
sg980
F0.019230769230769232
ssg633
(dp1604
g979
F0.009708737864077669
sg980
F0.028846153846153848
ssg634
(dp1605
g979
F0.019417475728155338
sg980
F0.009615384615384616
ssg212
(dp1606
g979
F0.009708737864077669
sg980
F0.019230769230769232
ssg724
(dp1607
g979
F0.019417475728155338
sg980
F0.009615384615384616
ssg637
(dp1608
g979
F0.009708737864077669
sg980
F0.019230769230769232
ssg638
(dp1609
g979
F0.019417475728155338
sg980
F0.009615384615384616
ssg639
(dp1610
g979
F0.009708737864077669
sg980
F0.028846153846153848
ssg640
(dp1611
g979
F0.019417475728155338
sg980
F0.009615384615384616
ssg641
(dp1612
g979
F0.009708737864077669
sg980
F0.019230769230769232
ssg642
(dp1613
g979
F0.019417475728155338
sg980
F0.009615384615384616
ssg774
(dp1614
g979
F0.009708737864077669
sg980
F0.019230769230769232
ssg644
(dp1615
g979
F0.019417475728155338
sg980
F0.009615384615384616
ssg645
(dp1616
g979
F0.009708737864077669
sg980
F0.019230769230769232
ssg646
(dp1617
g979
F0.019417475728155338
sg980
F0.019230769230769232
ssg647
(dp1618
g979
F0.009708737864077669
sg980
F0.057692307692307696
ssg423
(dp1619
g979
F0.019417475728155338
sg980
F0.009615384615384616
ssg649
(dp1620
g979
F0.019417475728155338
sg980
F0.009615384615384616
ssg650
(dp1621
g979
F0.009708737864077669
sg980
F0.019230769230769232
ssg651
(dp1622
g979
F0.019417475728155338
sg980
F0.009615384615384616
ssg652
(dp1623
g979
F0.009708737864077669
sg980
F0.028846153846153848
ssg653
(dp1624
g979
F0.009708737864077669
sg980
F0.028846153846153848
ssg654
(dp1625
g979
F0.019417475728155338
sg980
F0.009615384615384616
ssg655
(dp1626
g979
F0.019417475728155338
sg980
F0.009615384615384616
ssg656
(dp1627
g979
F0.038834951456310676
sg980
F0.009615384615384616
ssg205
(dp1628
g979
F0.019417475728155338
sg980
F0.019230769230769232
ssg829
(dp1629
g979
F0.009708737864077669
sg980
F0.019230769230769232
ssg658
(dp1630
g979
F0.009708737864077669
sg980
F0.028846153846153848
ssg659
(dp1631
g979
F0.02912621359223301
sg980
F0.09615384615384616
ssg660
(dp1632
g979
F0.019417475728155338
sg980
F0.009615384615384616
ssg661
(dp1633
g979
F0.019417475728155338
sg980
F0.009615384615384616
ssg662
(dp1634
g979
F0.02912621359223301
sg980
F0.009615384615384616
ssg451
(dp1635
g979
F0.019417475728155338
sg980
F0.009615384615384616
ssg439
(dp1636
g979
F0.009708737864077669
sg980
F0.14423076923076922
ssg665
(dp1637
g979
F0.019417475728155338
sg980
F0.028846153846153848
ssg667
(dp1638
g979
F0.009708737864077669
sg980
F0.019230769230769232
ssg668
(dp1639
g979
F0.019417475728155338
sg980
F0.009615384615384616
ssg35
(dp1640
g979
F0.019417475728155338
sg980
F0.009615384615384616
ssg670
(dp1641
g979
F0.019417475728155338
sg980
F0.009615384615384616
ssg462
(dp1642
g979
F0.019417475728155338
sg980
F0.009615384615384616
ssg672
(dp1643
g979
F0.019417475728155338
sg980
F0.009615384615384616
ssg673
(dp1644
g979
F0.019417475728155338
sg980
F0.009615384615384616
ssg674
(dp1645
g979
F0.019417475728155338
sg980
F0.009615384615384616
ssg882
(dp1646
g979
F0.019417475728155338
sg980
F0.009615384615384616
ssg474
(dp1647
g979
F0.02912621359223301
sg980
F0.009615384615384616
ssg676
(dp1648
g979
F0.009708737864077669
sg980
F0.16346153846153846
ssg677
(dp1649
g979
F0.009708737864077669
sg980
F0.019230769230769232
ssg336
(dp1650
g979
F0.019417475728155338
sg980
F0.009615384615384616
ssg679
(dp1651
g979
F0.009708737864077669
sg980
F0.019230769230769232
ssg614
(dp1652
g979
F0.019417475728155338
sg980
F0.028846153846153848
ssg337
(dp1653
g979
F0.019417475728155338
sg980
F0.009615384615384616
ssg98
(dp1654
g979
F0.019417475728155338
sg980
F0.019230769230769232
ssg683
(dp1655
g979
F0.009708737864077669
sg980
F0.019230769230769232
ssg684
(dp1656
g979
F0.009708737864077669
sg980
F0.019230769230769232
ssg615
(dp1657
g979
F0.019417475728155338
sg980
F0.009615384615384616
ssg685
(dp1658
g979
F0.019417475728155338
sg980
F0.009615384615384616
ssg686
(dp1659
g979
F0.02912621359223301
sg980
F0.009615384615384616
ssg687
(dp1660
g979
F0.009708737864077669
sg980
F0.019230769230769232
ssg688
(dp1661
g979
F0.019417475728155338
sg980
F0.009615384615384616
ssg933
(dp1662
g979
F0.02912621359223301
sg980
F0.009615384615384616
ssg689
(dp1663
g979
F0.038834951456310676
sg980
F0.009615384615384616
ssg690
(dp1664
g979
F0.009708737864077669
sg980
F0.019230769230769232
ssg691
(dp1665
g979
F0.019417475728155338
sg980
F0.009615384615384616
ssg616
(dp1666
g979
F0.019417475728155338
sg980
F0.009615384615384616
ssg692
(dp1667
g979
F0.009708737864077669
sg980
F0.019230769230769232
ssg701
(dp1668
g979
F0.02912621359223301
sg980
F0.009615384615384616
ssg693
(dp1669
g979
F0.038834951456310676
sg980
F0.009615384615384616
ssg694
(dp1670
g979
F0.038834951456310676
sg980
F0.009615384615384616
ssg695
(dp1671
g979
F0.009708737864077669
sg980
F0.028846153846153848
ssg115
(dp1672
g979
F0.009708737864077669
sg980
F0.019230769230769232
ssg191
(dp1673
g979
F0.009708737864077669
sg980
F0.019230769230769232
ssg698
(dp1674
g979
F0.019417475728155338
sg980
F0.009615384615384616
ssg203
(dp1675
g979
F0.009708737864077669
sg980
F0.019230769230769232
ssg700
(dp1676
g979
F0.009708737864077669
sg980
F0.019230769230769232
ssg41
(dp1677
g979
F0.019417475728155338
sg980
F0.009615384615384616
ssg223
(dp1678
g979
F0.019417475728155338
sg980
F0.009615384615384616
ssg703
(dp1679
g979
F0.019417475728155338
sg980
F0.009615384615384616
ssg704
(dp1680
g979
F0.019417475728155338
sg980
F0.009615384615384616
ssg705
(dp1681
g979
F0.019417475728155338
sg980
F0.009615384615384616
ssg422
(dp1682
g979
F0.019417475728155338
sg980
F0.009615384615384616
ssg146
(dp1683
g979
F0.019417475728155338
sg980
F0.009615384615384616
ssg708
(dp1684
g979
F0.019417475728155338
sg980
F0.009615384615384616
ssg929
(dp1685
g979
F0.019417475728155338
sg980
F0.019230769230769232
ssg784
(dp1686
g979
F0.02912621359223301
sg980
F0.009615384615384616
ssg541
(dp1687
g979
F0.019417475728155338
sg980
F0.009615384615384616
ssg930
(dp1688
g979
F0.009708737864077669
sg980
F0.019230769230769232
ssg923
(dp1689
g979
F0.009708737864077669
sg980
F0.019230769230769232
ssg712
(dp1690
g979
F0.019417475728155338
sg980
F0.009615384615384616
ssg713
(dp1691
g979
F0.019417475728155338
sg980
F0.009615384615384616
ssg714
(dp1692
g979
F0.019417475728155338
sg980
F0.009615384615384616
ssg772
(dp1693
g979
F0.019417475728155338
sg980
F0.019230769230769232
ssg307
(dp1694
g979
F0.02912621359223301
sg980
F0.04807692307692308
ssg717
(dp1695
g979
F0.019417475728155338
sg980
F0.009615384615384616
ssg718
(dp1696
g979
F0.019417475728155338
sg980
F0.009615384615384616
ssg720
(dp1697
g979
F0.019417475728155338
sg980
F0.009615384615384616
ssg721
(dp1698
g979
F0.038834951456310676
sg980
F0.019230769230769232
ssg722
(dp1699
g979
F0.009708737864077669
sg980
F0.019230769230769232
ssg723
(dp1700
g979
F0.02912621359223301
sg980
F0.009615384615384616
ssg725
(dp1701
g979
F0.019417475728155338
sg980
F0.009615384615384616
ssg726
(dp1702
g979
F0.009708737864077669
sg980
F0.019230769230769232
ssg727
(dp1703
g979
F0.019417475728155338
sg980
F0.028846153846153848
ssg728
(dp1704
g979
F0.019417475728155338
sg980
F0.009615384615384616
ssg730
(dp1705
g979
F0.019417475728155338
sg980
F0.009615384615384616
ssg731
(dp1706
g979
F0.019417475728155338
sg980
F0.009615384615384616
ssg732
(dp1707
g979
F0.019417475728155338
sg980
F0.009615384615384616
ssg733
(dp1708
g979
F0.009708737864077669
sg980
F0.019230769230769232
ssg734
(dp1709
g979
F0.009708737864077669
sg980
F0.019230769230769232
ssg735
(dp1710
g979
F0.009708737864077669
sg980
F0.019230769230769232
ssg736
(dp1711
g979
F0.019417475728155338
sg980
F0.009615384615384616
ssg433
(dp1712
g979
F0.009708737864077669
sg980
F0.09615384615384616
ssg522
(dp1713
g979
F0.019417475728155338
sg980
F0.009615384615384616
ssg739
(dp1714
g979
F0.019417475728155338
sg980
F0.009615384615384616
ssg740
(dp1715
g979
F0.009708737864077669
sg980
F0.019230769230769232
ssg741
(dp1716
g979
F0.019417475728155338
sg980
F0.009615384615384616
ssg742
(dp1717
g979
F0.009708737864077669
sg980
F0.019230769230769232
ssg743
(dp1718
g979
F0.009708737864077669
sg980
F0.019230769230769232
ssg456
(dp1719
g979
F0.019417475728155338
sg980
F0.009615384615384616
ssg745
(dp1720
g979
F0.019417475728155338
sg980
F0.009615384615384616
ssg582
(dp1721
g979
F0.019417475728155338
sg980
F0.009615384615384616
ssg476
(dp1722
g979
F0.019417475728155338
sg980
F0.009615384615384616
ssg748
(dp1723
g979
F0.009708737864077669
sg980
F0.019230769230769232
ssg749
(dp1724
g979
F0.009708737864077669
sg980
F0.028846153846153848
ssg750
(dp1725
g979
F0.019417475728155338
sg980
F0.009615384615384616
ssg751
(dp1726
g979
F0.019417475728155338
sg980
F0.009615384615384616
ssg752
(dp1727
g979
F0.019417475728155338
sg980
F0.009615384615384616
ssg753
(dp1728
g979
F0.019417475728155338
sg980
F0.009615384615384616
ssg754
(dp1729
g979
F0.019417475728155338
sg980
F0.009615384615384616
ssg549
(dp1730
g979
F0.019417475728155338
sg980
F0.009615384615384616
ssg561
(dp1731
g979
F0.02912621359223301
sg980
F0.009615384615384616
ssg466
(dp1732
g979
F0.019417475728155338
sg980
F0.009615384615384616
ssg758
(dp1733
g979
F0.009708737864077669
sg980
F0.019230769230769232
ssg759
(dp1734
g979
F0.019417475728155338
sg980
F0.009615384615384616
ssg760
(dp1735
g979
F0.009708737864077669
sg980
F0.019230769230769232
ssg587
(dp1736
g979
F0.019417475728155338
sg980
F0.009615384615384616
ssg762
(dp1737
g979
F0.009708737864077669
sg980
F0.019230769230769232
ssg625
(dp1738
g979
F0.019417475728155338
sg980
F0.009615384615384616
ssg763
(dp1739
g979
F0.019417475728155338
sg980
F0.009615384615384616
ssg764
(dp1740
g979
F0.019417475728155338
sg980
F0.009615384615384616
ssg765
(dp1741
g979
F0.009708737864077669
sg980
F0.019230769230769232
ssg767
(dp1742
g979
F0.009708737864077669
sg980
F0.038461538461538464
ssg768
(dp1743
g979
F0.019417475728155338
sg980
F0.009615384615384616
ssg769
(dp1744
g979
F0.009708737864077669
sg980
F0.057692307692307696
ssg770
(dp1745
g979
F0.009708737864077669
sg980
F0.028846153846153848
ssg771
(dp1746
g979
F0.019417475728155338
sg980
F0.009615384615384616
ssg141
(dp1747
g979
F0.019417475728155338
sg980
F0.009615384615384616
ssg773
(dp1748
g979
F0.009708737864077669
sg980
F0.019230769230769232
ssg643
(dp1749
g979
F0.009708737864077669
sg980
F0.019230769230769232
ssg775
(dp1750
g979
F0.009708737864077669
sg980
F0.038461538461538464
ssg776
(dp1751
g979
F0.019417475728155338
sg980
F0.009615384615384616
ssg671
(dp1752
g979
F0.009708737864077669
sg980
F0.028846153846153848
ssg778
(dp1753
g979
F0.019417475728155338
sg980
F0.009615384615384616
ssg779
(dp1754
g979
F0.009708737864077669
sg980
F0.028846153846153848
ssg244
(dp1755
g979
F0.019417475728155338
sg980
F0.009615384615384616
ssg781
(dp1756
g979
F0.009708737864077669
sg980
F0.019230769230769232
ssg258
(dp1757
g979
F0.009708737864077669
sg980
F0.019230769230769232
ssg783
(dp1758
g979
F0.019417475728155338
sg980
F0.009615384615384616
ssg710
(dp1759
g979
F0.019417475728155338
sg980
F0.009615384615384616
ssg785
(dp1760
g979
F0.02912621359223301
sg980
F0.019230769230769232
ssg786
(dp1761
g979
F0.009708737864077669
sg980
F0.019230769230769232
ssg787
(dp1762
g979
F0.019417475728155338
sg980
F0.009615384615384616
ssg788
(dp1763
g979
F0.009708737864077669
sg980
F0.019230769230769232
ssg789
(dp1764
g979
F0.06796116504854369
sg980
F0.25
ssg790
(dp1765
g979
F0.04854368932038835
sg980
F0.009615384615384616
ssg791
(dp1766
g979
F0.019417475728155338
sg980
F0.009615384615384616
ssg792
(dp1767
g979
F0.02912621359223301
sg980
F0.009615384615384616
ssg793
(dp1768
g979
F0.009708737864077669
sg980
F0.019230769230769232
ssg157
(dp1769
g979
F0.019417475728155338
sg980
F0.009615384615384616
ssg795
(dp1770
g979
F0.019417475728155338
sg980
F0.009615384615384616
ssg799
(dp1771
g979
F0.02912621359223301
sg980
F0.009615384615384616
ssg165
(dp1772
g979
F0.019417475728155338
sg980
F0.009615384615384616
ssg430
(dp1773
g979
F0.009708737864077669
sg980
F0.019230769230769232
ssg798
(dp1774
g979
F0.009708737864077669
sg980
F0.019230769230769232
ssg796
(dp1775
g979
F0.02912621359223301
sg980
F0.009615384615384616
ssg800
(dp1776
g979
F0.02912621359223301
sg980
F0.009615384615384616
ssg801
(dp1777
g979
F0.019417475728155338
sg980
F0.009615384615384616
ssg678
(dp1778
g979
F0.009708737864077669
sg980
F0.019230769230769232
ssg803
(dp1779
g979
F0.009708737864077669
sg980
F0.019230769230769232
ssg657
(dp1780
g979
F0.009708737864077669
sg980
F0.019230769230769232
ssg805
(dp1781
g979
F0.019417475728155338
sg980
F0.009615384615384616
ssg946
(dp1782
g979
F0.019417475728155338
sg980
F0.009615384615384616
ssg806
(dp1783
g979
F0.019417475728155338
sg980
F0.009615384615384616
ssg202
(dp1784
g979
F0.009708737864077669
sg980
F0.019230769230769232
ssg246
(dp1785
g979
F0.019417475728155338
sg980
F0.009615384615384616
ssg802
(dp1786
g979
F0.009708737864077669
sg980
F0.019230769230769232
ssg945
(dp1787
g979
F0.009708737864077669
sg980
F0.019230769230769232
ssg811
(dp1788
g979
F0.019417475728155338
sg980
F0.009615384615384616
ssg812
(dp1789
g979
F0.019417475728155338
sg980
F0.009615384615384616
ssg813
(dp1790
g979
F0.019417475728155338
sg980
F0.009615384615384616
ssg814
(dp1791
g979
F0.009708737864077669
sg980
F0.019230769230769232
ssg815
(dp1792
g979
F0.019417475728155338
sg980
F0.009615384615384616
ssg816
(dp1793
g979
F0.019417475728155338
sg980
F0.019230769230769232
ssg817
(dp1794
g979
F0.02912621359223301
sg980
F0.009615384615384616
ssg818
(dp1795
g979
F0.04854368932038835
sg980
F0.028846153846153848
ssg819
(dp1796
g979
F0.009708737864077669
sg980
F0.019230769230769232
ssg804
(dp1797
g979
F0.019417475728155338
sg980
F0.009615384615384616
ssg821
(dp1798
g979
F0.02912621359223301
sg980
F0.028846153846153848
ssg822
(dp1799
g979
F0.009708737864077669
sg980
F0.07692307692307693
ssg823
(dp1800
g979
F0.009708737864077669
sg980
F0.019230769230769232
ssg463
(dp1801
g979
F0.009708737864077669
sg980
F0.08653846153846154
ssg825
(dp1802
g979
F0.009708737864077669
sg980
F0.019230769230769232
ssg826
(dp1803
g979
F0.009708737864077669
sg980
F0.019230769230769232
ssg828
(dp1804
g979
F0.02912621359223301
sg980
F0.009615384615384616
ssg382
(dp1805
g979
F0.02912621359223301
sg980
F0.019230769230769232
ssg830
(dp1806
g979
F0.019417475728155338
sg980
F0.009615384615384616
ssg746
(dp1807
g979
F0.009708737864077669
sg980
F0.019230769230769232
ssg831
(dp1808
g979
F0.009708737864077669
sg980
F0.028846153846153848
ssg635
(dp1809
g979
F0.019417475728155338
sg980
F0.009615384615384616
ssg833
(dp1810
g979
F0.019417475728155338
sg980
F0.009615384615384616
ssg834
(dp1811
g979
F0.019417475728155338
sg980
F0.057692307692307696
ssg835
(dp1812
g979
F0.019417475728155338
sg980
F0.009615384615384616
ssg836
(dp1813
g979
F0.009708737864077669
sg980
F0.028846153846153848
ssg837
(dp1814
g979
F0.02912621359223301
sg980
F0.009615384615384616
ssg839
(dp1815
g979
F0.009708737864077669
sg980
F0.028846153846153848
ssg33
(dp1816
g979
F0.019417475728155338
sg980
F0.009615384615384616
ssg841
(dp1817
g979
F0.009708737864077669
sg980
F0.019230769230769232
ssg842
(dp1818
g979
F0.019417475728155338
sg980
F0.009615384615384616
ssg843
(dp1819
g979
F0.009708737864077669
sg980
F0.019230769230769232
ssg57
(dp1820
g979
F0.009708737864077669
sg980
F0.019230769230769232
ssg845
(dp1821
g979
F0.019417475728155338
sg980
F0.009615384615384616
ssg72
(dp1822
g979
F0.019417475728155338
sg980
F0.009615384615384616
ssg847
(dp1823
g979
F0.019417475728155338
sg980
F0.009615384615384616
ssg848
(dp1824
g979
F0.009708737864077669
sg980
F0.019230769230769232
ssg849
(dp1825
g979
F0.009708737864077669
sg980
F0.019230769230769232
ssg850
(dp1826
g979
F0.019417475728155338
sg980
F0.009615384615384616
ssg851
(dp1827
g979
F0.019417475728155338
sg980
F0.009615384615384616
ssg809
(dp1828
g979
F0.009708737864077669
sg980
F0.04807692307692308
ssg853
(dp1829
g979
F0.009708737864077669
sg980
F0.019230769230769232
ssg130
(dp1830
g979
F0.019417475728155338
sg980
F0.009615384615384616
ssg353
(dp1831
g979
F0.02912621359223301
sg980
F0.009615384615384616
ssg856
(dp1832
g979
F0.019417475728155338
sg980
F0.009615384615384616
ssg857
(dp1833
g979
F0.009708737864077669
sg980
F0.028846153846153848
ssg858
(dp1834
g979
F0.019417475728155338
sg980
F0.009615384615384616
ssg859
(dp1835
g979
F0.009708737864077669
sg980
F0.019230769230769232
ssg807
(dp1836
g979
F0.02912621359223301
sg980
F0.009615384615384616
ssg860
(dp1837
g979
F0.019417475728155338
sg980
F0.009615384615384616
ssg187
(dp1838
g979
F0.009708737864077669
sg980
F0.019230769230769232
ssg863
(dp1839
g979
F0.009708737864077669
sg980
F0.019230769230769232
ssg636
(dp1840
g979
F0.019417475728155338
sg980
F0.009615384615384616
ssg469
(dp1841
g979
F0.009708737864077669
sg980
F0.028846153846153848
ssg865
(dp1842
g979
F0.009708737864077669
sg980
F0.028846153846153848
ssg866
(dp1843
g979
F0.009708737864077669
sg980
F0.019230769230769232
ssg867
(dp1844
g979
F0.038834951456310676
sg980
F0.09615384615384616
ssg868
(dp1845
g979
F0.019417475728155338
sg980
F0.009615384615384616
ssg869
(dp1846
g979
F0.009708737864077669
sg980
F0.019230769230769232
ssg838
(dp1847
g979
F0.019417475728155338
sg980
F0.009615384615384616
ssg681
(dp1848
g979
F0.009708737864077669
sg980
F0.019230769230769232
ssg471
(dp1849
g979
F0.019417475728155338
sg980
F0.009615384615384616
ssg145
(dp1850
g979
F0.009708737864077669
sg980
F0.0673076923076923
ssg291
(dp1851
g979
F0.019417475728155338
sg980
F0.009615384615384616
ssg875
(dp1852
g979
F0.02912621359223301
sg980
F0.009615384615384616
ssg876
(dp1853
g979
F0.019417475728155338
sg980
F0.009615384615384616
ssg877
(dp1854
g979
F0.019417475728155338
sg980
F0.009615384615384616
ssg878
(dp1855
g979
F0.019417475728155338
sg980
F0.009615384615384616
ssg879
(dp1856
g979
F0.019417475728155338
sg980
F0.009615384615384616
ssg648
(dp1857
g979
F0.009708737864077669
sg980
F0.019230769230769232
ssg881
(dp1858
g979
F0.019417475728155338
sg980
F0.009615384615384616
ssg777
(dp1859
g979
F0.009708737864077669
sg980
F0.028846153846153848
ssg883
(dp1860
g979
F0.019417475728155338
sg980
F0.019230769230769232
ssg884
(dp1861
g979
F0.019417475728155338
sg980
F0.009615384615384616
ssg378
(dp1862
g979
F0.019417475728155338
sg980
F0.009615384615384616
ssg383
(dp1863
g979
F0.019417475728155338
sg980
F0.009615384615384616
ssg887
(dp1864
g979
F0.019417475728155338
sg980
F0.009615384615384616
ssg870
(dp1865
g979
F0.019417475728155338
sg980
F0.009615384615384616
ssg403
(dp1866
g979
F0.019417475728155338
sg980
F0.009615384615384616
ssg820
(dp1867
g979
F0.019417475728155338
sg980
F0.009615384615384616
ssg890
(dp1868
g979
F0.009708737864077669
sg980
F0.019230769230769232
ssg891
(dp1869
g979
F0.019417475728155338
sg980
F0.009615384615384616
ssg892
(dp1870
g979
F0.019417475728155338
sg980
F0.009615384615384616
ssg438
(dp1871
g979
F0.019417475728155338
sg980
F0.009615384615384616
ssg894
(dp1872
g979
F0.009708737864077669
sg980
F0.019230769230769232
ssg895
(dp1873
g979
F0.019417475728155338
sg980
F0.009615384615384616
ssg896
(dp1874
g979
F0.019417475728155338
sg980
F0.009615384615384616
ssg897
(dp1875
g979
F0.019417475728155338
sg980
F0.0673076923076923
ssg898
(dp1876
g979
F0.019417475728155338
sg980
F0.009615384615384616
ssg729
(dp1877
g979
F0.019417475728155338
sg980
F0.009615384615384616
ssg479
(dp1878
g979
F0.019417475728155338
sg980
F0.009615384615384616
ssg901
(dp1879
g979
F0.019417475728155338
sg980
F0.009615384615384616
ssg488
(dp1880
g979
F0.019417475728155338
sg980
F0.009615384615384616
ssg903
(dp1881
g979
F0.009708737864077669
sg980
F0.038461538461538464
ssg904
(dp1882
g979
F0.019417475728155338
sg980
F0.009615384615384616
ssg905
(dp1883
g979
F0.019417475728155338
sg980
F0.009615384615384616
ssg906
(dp1884
g979
F0.019417475728155338
sg980
F0.019230769230769232
ssg537
(dp1885
g979
F0.019417475728155338
sg980
F0.009615384615384616
ssg908
(dp1886
g979
F0.019417475728155338
sg980
F0.009615384615384616
ssg909
(dp1887
g979
F0.019417475728155338
sg980
F0.009615384615384616
ssg910
(dp1888
g979
F0.009708737864077669
sg980
F0.019230769230769232
ssg911
(dp1889
g979
F0.009708737864077669
sg980
F0.019230769230769232
ssg912
(dp1890
g979
F0.009708737864077669
sg980
F0.019230769230769232
ssg702
(dp1891
g979
F0.009708737864077669
sg980
F0.038461538461538464
ssg913
(dp1892
g979
F0.019417475728155338
sg980
F0.009615384615384616
ssg914
(dp1893
g979
F0.019417475728155338
sg980
F0.009615384615384616
ssg824
(dp1894
g979
F0.019417475728155338
sg980
F0.009615384615384616
ssg69
(dp1895
g979
F0.019417475728155338
sg980
F0.009615384615384616
ssg937
(dp1896
g979
F0.019417475728155338
sg980
F0.009615384615384616
ssg917
(dp1897
g979
F0.009708737864077669
sg980
F0.019230769230769232
ssg918
(dp1898
g979
F0.009708737864077669
sg980
F0.028846153846153848
ssg919
(dp1899
g979
F0.019417475728155338
sg980
F0.009615384615384616
ssg920
(dp1900
g979
F0.009708737864077669
sg980
F0.019230769230769232
ssg921
(dp1901
g979
F0.009708737864077669
sg980
F0.019230769230769232
ssg963
(dp1902
g979
F0.009708737864077669
sg980
F0.057692307692307696
ssg84
(dp1903
g979
F0.019417475728155338
sg980
F0.009615384615384616
ssg924
(dp1904
g979
F0.009708737864077669
sg980
F0.019230769230769232
ssg827
(dp1905
g979
F0.019417475728155338
sg980
F0.009615384615384616
ssg926
(dp1906
g979
F0.019417475728155338
sg980
F0.009615384615384616
ssg927
(dp1907
g979
F0.019417475728155338
sg980
F0.009615384615384616
ssg928
(dp1908
g979
F0.019417475728155338
sg980
F0.009615384615384616
ssg709
(dp1909
g979
F0.019417475728155338
sg980
F0.009615384615384616
ssg711
(dp1910
g979
F0.019417475728155338
sg980
F0.009615384615384616
ssg931
(dp1911
g979
F0.019417475728155338
sg980
F0.009615384615384616
ssg844
(dp1912
g979
F0.009708737864077669
sg980
F0.04807692307692308
ssg121
(dp1913
g979
F0.019417475728155338
sg980
F0.009615384615384616
ssg934
(dp1914
g979
F0.019417475728155338
sg980
F0.009615384615384616
ssg935
(dp1915
g979
F0.019417475728155338
sg980
F0.009615384615384616
ssg936
(dp1916
g979
F0.02912621359223301
sg980
F0.009615384615384616
ssg719
(dp1917
g979
F0.019417475728155338
sg980
F0.009615384615384616
ssg938
(dp1918
g979
F0.019417475728155338
sg980
F0.009615384615384616
ssg766
(dp1919
g979
F0.019417475728155338
sg980
F0.009615384615384616
ssg940
(dp1920
g979
F0.009708737864077669
sg980
F0.028846153846153848
ssg941
(dp1921
g979
F0.019417475728155338
sg980
F0.009615384615384616
ssg942
(dp1922
g979
F0.019417475728155338
sg980
F0.009615384615384616
ssg943
(dp1923
g979
F0.019417475728155338
sg980
F0.009615384615384616
ssg944
(dp1924
g979
F0.009708737864077669
sg980
F0.019230769230769232
ssg810
(dp1925
g979
F0.019417475728155338
sg980
F0.009615384615384616
ssg497
(dp1926
g979
F0.019417475728155338
sg980
F0.009615384615384616
ssg947
(dp1927
g979
F0.019417475728155338
sg980
F0.009615384615384616
ssg948
(dp1928
g979
F0.019417475728155338
sg980
F0.009615384615384616
ssg949
(dp1929
g979
F0.038834951456310676
sg980
F0.009615384615384616
ssg950
(dp1930
g979
F0.009708737864077669
sg980
F0.019230769230769232
ssg951
(dp1931
g979
F0.019417475728155338
sg980
F0.009615384615384616
ssg952
(dp1932
g979
F0.009708737864077669
sg980
F0.019230769230769232
ssg840
(dp1933
g979
F0.019417475728155338
sg980
F0.009615384615384616
ssg954
(dp1934
g979
F0.019417475728155338
sg980
F0.009615384615384616
ssg955
(dp1935
g979
F0.019417475728155338
sg980
F0.009615384615384616
ssg969
(dp1936
g979
F0.019417475728155338
sg980
F0.009615384615384616
ssg956
(dp1937
g979
F0.009708737864077669
sg980
F0.019230769230769232
ssg957
(dp1938
g979
F0.019417475728155338
sg980
F0.009615384615384616
ssg958
(dp1939
g979
F0.019417475728155338
sg980
F0.019230769230769232
ssg864
(dp1940
g979
F0.009708737864077669
sg980
F0.019230769230769232
ssg959
(dp1941
g979
F0.009708737864077669
sg980
F0.028846153846153848
ssg960
(dp1942
g979
F0.009708737864077669
sg980
F0.019230769230769232
ssg961
(dp1943
g979
F0.02912621359223301
sg980
F0.028846153846153848
ssg922
(dp1944
g979
F0.019417475728155338
sg980
F0.009615384615384616
ssg964
(dp1945
g979
F0.009708737864077669
sg980
F0.019230769230769232
ssg965
(dp1946
g979
F0.019417475728155338
sg980
F0.009615384615384616
ssg966
(dp1947
g979
F0.019417475728155338
sg980
F0.009615384615384616
ssg967
(dp1948
g979
F0.019417475728155338
sg980
F0.009615384615384616
ssg968
(dp1949
g979
F0.038834951456310676
sg980
F0.009615384615384616
ssg663
(dp1950
g979
F0.009708737864077669
sg980
F0.019230769230769232
ssg970
(dp1951
g979
F0.009708737864077669
sg980
F0.019230769230769232
ssg962
(dp1952
g979
F0.019417475728155338
sg980
F0.009615384615384616
ssg972
(dp1953
g979
F0.019417475728155338
sg980
F0.009615384615384616
ssg973
(dp1954
g979
F0.009708737864077669
sg980
F0.019230769230769232
ssg974
(dp1955
g979
F0.009708737864077669
sg980
F0.019230769230769232
ssg664
(dp1956
g979
F0.009708737864077669
sg980
F0.038461538461538464
sssbtp1957
.